
03_DEKODER_IR.elf:     file format elf32-avr

Sections:
Idx Name          Size      VMA       LMA       File off  Algn
  0 .text         00000a40  00000000  00000000  00000094  2**1
                  CONTENTS, ALLOC, LOAD, READONLY, CODE
  1 .data         00000004  00800060  00000a40  00000ad4  2**0
                  CONTENTS, ALLOC, LOAD, DATA
  2 .bss          00000030  00800064  00800064  00000ad8  2**0
                  ALLOC
  3 .stab         00000750  00000000  00000000  00000ad8  2**2
                  CONTENTS, READONLY, DEBUGGING
  4 .stabstr      0000010f  00000000  00000000  00001228  2**0
                  CONTENTS, READONLY, DEBUGGING
  5 .comment      0000002f  00000000  00000000  00001337  2**0
                  CONTENTS, READONLY

Disassembly of section .text:

00000000 <__vectors>:
   0:	0c 94 72 00 	jmp	0xe4	; 0xe4 <__ctors_end>
   4:	0c 94 8f 00 	jmp	0x11e	; 0x11e <__bad_interrupt>
   8:	0c 94 8f 00 	jmp	0x11e	; 0x11e <__bad_interrupt>
   c:	0c 94 8f 00 	jmp	0x11e	; 0x11e <__bad_interrupt>
  10:	0c 94 8f 00 	jmp	0x11e	; 0x11e <__bad_interrupt>
  14:	0c 94 8f 00 	jmp	0x11e	; 0x11e <__bad_interrupt>
  18:	0c 94 8f 00 	jmp	0x11e	; 0x11e <__bad_interrupt>
  1c:	0c 94 84 04 	jmp	0x908	; 0x908 <__vector_7>
  20:	0c 94 8f 00 	jmp	0x11e	; 0x11e <__bad_interrupt>
  24:	0c 94 8f 00 	jmp	0x11e	; 0x11e <__bad_interrupt>
  28:	0c 94 8f 00 	jmp	0x11e	; 0x11e <__bad_interrupt>
  2c:	0c 94 8f 00 	jmp	0x11e	; 0x11e <__bad_interrupt>
  30:	0c 94 8f 00 	jmp	0x11e	; 0x11e <__bad_interrupt>
  34:	0c 94 8f 00 	jmp	0x11e	; 0x11e <__bad_interrupt>
  38:	0c 94 8f 00 	jmp	0x11e	; 0x11e <__bad_interrupt>
  3c:	0c 94 8f 00 	jmp	0x11e	; 0x11e <__bad_interrupt>
  40:	0c 94 8f 00 	jmp	0x11e	; 0x11e <__bad_interrupt>
  44:	0c 94 8f 00 	jmp	0x11e	; 0x11e <__bad_interrupt>
  48:	0c 94 8f 00 	jmp	0x11e	; 0x11e <__bad_interrupt>
  4c:	0c 94 8f 00 	jmp	0x11e	; 0x11e <__bad_interrupt>
  50:	0c 94 8f 00 	jmp	0x11e	; 0x11e <__bad_interrupt>

00000054 <sircs_param>:
  54:	01 0f 15 07 0b 07 0b 07 0b 0f 14 00 0f 14 00 01     ................
	...

00000065 <nec_param>:
  65:	02 05 0c 11 22 05 0c 05 0c 00 10 10 20 20 01 01     ....".......  ..
	...

00000076 <nec_rep_param>:
  76:	02 05 0c 11 22 05 0c 05 0c 00 00 00 00 00 01 01     ...."...........
	...

00000087 <samsung_param>:
  87:	03 05 0c 0f 1e 05 0c 04 0b 00 10 15 25 25 01 01     ............%%..
	...

00000098 <kaseikyo_param>:
  98:	05 02 0b 0c 1a 02 0b 02 0b 00 10 1c 28 30 01 01     ............(0..
	...

000000a9 <__c.1977>:
  a9:	70 72 6f 74 6f 63 6f 6c 3a 20 30 78 00              protocol: 0x.

000000b6 <__c.1979>:
  b6:	20 20 20 61 64 64 72 65 73 73 3a 20 30 78 00           address: 0x.

000000c5 <__c.1981>:
  c5:	20 20 20 63 6f 6d 6d 61 6e 64 3a 20 30 78 00           command: 0x.

000000d4 <__c.1983>:
  d4:	20 20 20 66 6c 61 67 73 3a 20 30 78 00                 flags: 0x.

000000e1 <__c.1985>:
  e1:	0d 0a 00                                            ...

000000e4 <__ctors_end>:
  e4:	11 24       	eor	r1, r1
  e6:	1f be       	out	0x3f, r1	; 63
  e8:	cf e5       	ldi	r28, 0x5F	; 95
  ea:	d8 e0       	ldi	r29, 0x08	; 8
  ec:	de bf       	out	0x3e, r29	; 62
  ee:	cd bf       	out	0x3d, r28	; 61

000000f0 <__do_copy_data>:
  f0:	10 e0       	ldi	r17, 0x00	; 0
  f2:	a0 e6       	ldi	r26, 0x60	; 96
  f4:	b0 e0       	ldi	r27, 0x00	; 0
  f6:	e0 e4       	ldi	r30, 0x40	; 64
  f8:	fa e0       	ldi	r31, 0x0A	; 10
  fa:	02 c0       	rjmp	.+4      	; 0x100 <__do_copy_data+0x10>
  fc:	05 90       	lpm	r0, Z+
  fe:	0d 92       	st	X+, r0
 100:	a4 36       	cpi	r26, 0x64	; 100
 102:	b1 07       	cpc	r27, r17
 104:	d9 f7       	brne	.-10     	; 0xfc <__do_copy_data+0xc>

00000106 <__do_clear_bss>:
 106:	20 e0       	ldi	r18, 0x00	; 0
 108:	a4 e6       	ldi	r26, 0x64	; 100
 10a:	b0 e0       	ldi	r27, 0x00	; 0
 10c:	01 c0       	rjmp	.+2      	; 0x110 <.do_clear_bss_start>

0000010e <.do_clear_bss_loop>:
 10e:	1d 92       	st	X+, r1

00000110 <.do_clear_bss_start>:
 110:	a4 39       	cpi	r26, 0x94	; 148
 112:	b2 07       	cpc	r27, r18
 114:	e1 f7       	brne	.-8      	; 0x10e <.do_clear_bss_loop>
 116:	0e 94 a8 04 	call	0x950	; 0x950 <main>
 11a:	0c 94 1e 05 	jmp	0xa3c	; 0xa3c <_exit>

0000011e <__bad_interrupt>:
 11e:	0c 94 00 00 	jmp	0	; 0x0 <__vectors>

00000122 <irmp_store_bit>:
 122:	60 91 78 00 	lds	r22, 0x0078
 126:	90 91 85 00 	lds	r25, 0x0085
 12a:	69 17       	cp	r22, r25
 12c:	48 f1       	brcs	.+82     	; 0x180 <irmp_store_bit+0x5e>
 12e:	20 91 86 00 	lds	r18, 0x0086
 132:	62 17       	cp	r22, r18
 134:	28 f5       	brcc	.+74     	; 0x180 <irmp_store_bit+0x5e>
 136:	40 91 8b 00 	lds	r20, 0x008B
 13a:	e8 2f       	mov	r30, r24
 13c:	f0 e0       	ldi	r31, 0x00	; 0
 13e:	20 91 73 00 	lds	r18, 0x0073
 142:	30 91 74 00 	lds	r19, 0x0074
 146:	44 23       	and	r20, r20
 148:	91 f0       	breq	.+36     	; 0x16e <irmp_store_bit+0x4c>
 14a:	46 2f       	mov	r20, r22
 14c:	50 e0       	ldi	r21, 0x00	; 0
 14e:	49 1b       	sub	r20, r25
 150:	51 09       	sbc	r21, r1
 152:	df 01       	movw	r26, r30
 154:	02 c0       	rjmp	.+4      	; 0x15a <irmp_store_bit+0x38>
 156:	aa 0f       	add	r26, r26
 158:	bb 1f       	adc	r27, r27
 15a:	4a 95       	dec	r20
 15c:	e2 f7       	brpl	.-8      	; 0x156 <irmp_store_bit+0x34>
 15e:	ad 01       	movw	r20, r26
 160:	42 2b       	or	r20, r18
 162:	53 2b       	or	r21, r19
 164:	50 93 74 00 	sts	0x0074, r21
 168:	40 93 73 00 	sts	0x0073, r20
 16c:	35 c0       	rjmp	.+106    	; 0x1d8 <irmp_store_bit+0xb6>
 16e:	22 0f       	add	r18, r18
 170:	33 1f       	adc	r19, r19
 172:	2e 2b       	or	r18, r30
 174:	3f 2b       	or	r19, r31
 176:	30 93 74 00 	sts	0x0074, r19
 17a:	20 93 73 00 	sts	0x0073, r18
 17e:	2c c0       	rjmp	.+88     	; 0x1d8 <irmp_store_bit+0xb6>
 180:	90 91 87 00 	lds	r25, 0x0087
 184:	69 17       	cp	r22, r25
 186:	40 f1       	brcs	.+80     	; 0x1d8 <irmp_store_bit+0xb6>
 188:	20 91 88 00 	lds	r18, 0x0088
 18c:	62 17       	cp	r22, r18
 18e:	20 f5       	brcc	.+72     	; 0x1d8 <irmp_store_bit+0xb6>
 190:	40 91 8b 00 	lds	r20, 0x008B
 194:	e8 2f       	mov	r30, r24
 196:	f0 e0       	ldi	r31, 0x00	; 0
 198:	20 91 71 00 	lds	r18, 0x0071
 19c:	30 91 72 00 	lds	r19, 0x0072
 1a0:	44 23       	and	r20, r20
 1a2:	91 f0       	breq	.+36     	; 0x1c8 <irmp_store_bit+0xa6>
 1a4:	46 2f       	mov	r20, r22
 1a6:	50 e0       	ldi	r21, 0x00	; 0
 1a8:	49 1b       	sub	r20, r25
 1aa:	51 09       	sbc	r21, r1
 1ac:	df 01       	movw	r26, r30
 1ae:	02 c0       	rjmp	.+4      	; 0x1b4 <irmp_store_bit+0x92>
 1b0:	aa 0f       	add	r26, r26
 1b2:	bb 1f       	adc	r27, r27
 1b4:	4a 95       	dec	r20
 1b6:	e2 f7       	brpl	.-8      	; 0x1b0 <irmp_store_bit+0x8e>
 1b8:	ad 01       	movw	r20, r26
 1ba:	42 2b       	or	r20, r18
 1bc:	53 2b       	or	r21, r19
 1be:	50 93 72 00 	sts	0x0072, r21
 1c2:	40 93 71 00 	sts	0x0071, r20
 1c6:	08 c0       	rjmp	.+16     	; 0x1d8 <irmp_store_bit+0xb6>
 1c8:	22 0f       	add	r18, r18
 1ca:	33 1f       	adc	r19, r19
 1cc:	2e 2b       	or	r18, r30
 1ce:	3f 2b       	or	r19, r31
 1d0:	30 93 72 00 	sts	0x0072, r19
 1d4:	20 93 71 00 	sts	0x0071, r18
 1d8:	90 91 7c 00 	lds	r25, 0x007C
 1dc:	93 30       	cpi	r25, 0x03	; 3
 1de:	d9 f4       	brne	.+54     	; 0x216 <irmp_store_bit+0xf4>
 1e0:	61 31       	cpi	r22, 0x11	; 17
 1e2:	08 f4       	brcc	.+2      	; 0x1e6 <irmp_store_bit+0xc4>
 1e4:	6c c0       	rjmp	.+216    	; 0x2be <irmp_store_bit+0x19c>
 1e6:	65 31       	cpi	r22, 0x15	; 21
 1e8:	08 f0       	brcs	.+2      	; 0x1ec <irmp_store_bit+0xca>
 1ea:	69 c0       	rjmp	.+210    	; 0x2be <irmp_store_bit+0x19c>
 1ec:	90 e0       	ldi	r25, 0x00	; 0
 1ee:	26 2f       	mov	r18, r22
 1f0:	30 e0       	ldi	r19, 0x00	; 0
 1f2:	21 51       	subi	r18, 0x11	; 17
 1f4:	31 09       	sbc	r19, r1
 1f6:	02 c0       	rjmp	.+4      	; 0x1fc <irmp_store_bit+0xda>
 1f8:	88 0f       	add	r24, r24
 1fa:	99 1f       	adc	r25, r25
 1fc:	2a 95       	dec	r18
 1fe:	e2 f7       	brpl	.-8      	; 0x1f8 <irmp_store_bit+0xd6>
 200:	20 91 76 00 	lds	r18, 0x0076
 204:	30 91 77 00 	lds	r19, 0x0077
 208:	28 2b       	or	r18, r24
 20a:	39 2b       	or	r19, r25
 20c:	30 93 77 00 	sts	0x0077, r19
 210:	20 93 76 00 	sts	0x0076, r18
 214:	54 c0       	rjmp	.+168    	; 0x2be <irmp_store_bit+0x19c>
 216:	95 30       	cpi	r25, 0x05	; 5
 218:	09 f0       	breq	.+2      	; 0x21c <irmp_store_bit+0xfa>
 21a:	51 c0       	rjmp	.+162    	; 0x2be <irmp_store_bit+0x19c>
 21c:	96 2f       	mov	r25, r22
 21e:	94 51       	subi	r25, 0x14	; 20
 220:	94 30       	cpi	r25, 0x04	; 4
 222:	b0 f4       	brcc	.+44     	; 0x250 <irmp_store_bit+0x12e>
 224:	48 2f       	mov	r20, r24
 226:	50 e0       	ldi	r21, 0x00	; 0
 228:	26 2f       	mov	r18, r22
 22a:	30 e0       	ldi	r19, 0x00	; 0
 22c:	28 50       	subi	r18, 0x08	; 8
 22e:	31 09       	sbc	r19, r1
 230:	02 c0       	rjmp	.+4      	; 0x236 <irmp_store_bit+0x114>
 232:	44 0f       	add	r20, r20
 234:	55 1f       	adc	r21, r21
 236:	2a 95       	dec	r18
 238:	e2 f7       	brpl	.-8      	; 0x232 <irmp_store_bit+0x110>
 23a:	20 91 71 00 	lds	r18, 0x0071
 23e:	30 91 72 00 	lds	r19, 0x0072
 242:	24 2b       	or	r18, r20
 244:	35 2b       	or	r19, r21
 246:	30 93 72 00 	sts	0x0072, r19
 24a:	20 93 71 00 	sts	0x0071, r18
 24e:	16 c0       	rjmp	.+44     	; 0x27c <irmp_store_bit+0x15a>
 250:	96 2f       	mov	r25, r22
 252:	98 51       	subi	r25, 0x18	; 24
 254:	94 30       	cpi	r25, 0x04	; 4
 256:	80 f4       	brcc	.+32     	; 0x278 <irmp_store_bit+0x156>
 258:	28 2f       	mov	r18, r24
 25a:	46 2f       	mov	r20, r22
 25c:	50 e0       	ldi	r21, 0x00	; 0
 25e:	44 51       	subi	r20, 0x14	; 20
 260:	51 09       	sbc	r21, r1
 262:	04 2e       	mov	r0, r20
 264:	01 c0       	rjmp	.+2      	; 0x268 <irmp_store_bit+0x146>
 266:	22 0f       	add	r18, r18
 268:	0a 94       	dec	r0
 26a:	ea f7       	brpl	.-6      	; 0x266 <irmp_store_bit+0x144>
 26c:	90 91 75 00 	lds	r25, 0x0075
 270:	92 2b       	or	r25, r18
 272:	90 93 75 00 	sts	0x0075, r25
 276:	02 c0       	rjmp	.+4      	; 0x27c <irmp_store_bit+0x15a>
 278:	60 33       	cpi	r22, 0x30	; 48
 27a:	08 f5       	brcc	.+66     	; 0x2be <irmp_store_bit+0x19c>
 27c:	e6 2f       	mov	r30, r22
 27e:	e6 95       	lsr	r30
 280:	e6 95       	lsr	r30
 282:	e6 95       	lsr	r30
 284:	26 2f       	mov	r18, r22
 286:	27 70       	andi	r18, 0x07	; 7
 288:	f0 e0       	ldi	r31, 0x00	; 0
 28a:	e2 57       	subi	r30, 0x72	; 114
 28c:	ff 4f       	sbci	r31, 0xFF	; 255
 28e:	88 23       	and	r24, r24
 290:	59 f0       	breq	.+22     	; 0x2a8 <irmp_store_bit+0x186>
 292:	81 e0       	ldi	r24, 0x01	; 1
 294:	90 e0       	ldi	r25, 0x00	; 0
 296:	02 2e       	mov	r0, r18
 298:	01 c0       	rjmp	.+2      	; 0x29c <irmp_store_bit+0x17a>
 29a:	88 0f       	add	r24, r24
 29c:	0a 94       	dec	r0
 29e:	ea f7       	brpl	.-6      	; 0x29a <irmp_store_bit+0x178>
 2a0:	90 81       	ld	r25, Z
 2a2:	98 2b       	or	r25, r24
 2a4:	90 83       	st	Z, r25
 2a6:	0b c0       	rjmp	.+22     	; 0x2be <irmp_store_bit+0x19c>
 2a8:	81 e0       	ldi	r24, 0x01	; 1
 2aa:	90 e0       	ldi	r25, 0x00	; 0
 2ac:	02 2e       	mov	r0, r18
 2ae:	01 c0       	rjmp	.+2      	; 0x2b2 <irmp_store_bit+0x190>
 2b0:	88 0f       	add	r24, r24
 2b2:	0a 94       	dec	r0
 2b4:	ea f7       	brpl	.-6      	; 0x2b0 <irmp_store_bit+0x18e>
 2b6:	80 95       	com	r24
 2b8:	90 81       	ld	r25, Z
 2ba:	89 23       	and	r24, r25
 2bc:	80 83       	st	Z, r24
 2be:	6f 5f       	subi	r22, 0xFF	; 255
 2c0:	60 93 78 00 	sts	0x0078, r22
 2c4:	08 95       	ret

000002c6 <irmp_init>:
 2c6:	92 98       	cbi	0x12, 2	; 18
 2c8:	8a 98       	cbi	0x11, 2	; 17
 2ca:	08 95       	ret

000002cc <irmp_get_data>:
 2cc:	fc 01       	movw	r30, r24
 2ce:	80 91 6c 00 	lds	r24, 0x006C
 2d2:	88 23       	and	r24, r24
 2d4:	09 f4       	brne	.+2      	; 0x2d8 <irmp_get_data+0xc>
 2d6:	61 c0       	rjmp	.+194    	; 0x39a <irmp_get_data+0xce>
 2d8:	80 91 6b 00 	lds	r24, 0x006B
 2dc:	82 30       	cpi	r24, 0x02	; 2
 2de:	51 f1       	breq	.+84     	; 0x334 <irmp_get_data+0x68>
 2e0:	83 30       	cpi	r24, 0x03	; 3
 2e2:	09 f0       	breq	.+2      	; 0x2e6 <irmp_get_data+0x1a>
 2e4:	5c c0       	rjmp	.+184    	; 0x39e <irmp_get_data+0xd2>
 2e6:	80 91 67 00 	lds	r24, 0x0067
 2ea:	90 91 68 00 	lds	r25, 0x0068
 2ee:	20 91 67 00 	lds	r18, 0x0067
 2f2:	30 91 68 00 	lds	r19, 0x0068
 2f6:	89 2f       	mov	r24, r25
 2f8:	99 27       	eor	r25, r25
 2fa:	20 95       	com	r18
 2fc:	30 95       	com	r19
 2fe:	33 27       	eor	r19, r19
 300:	82 17       	cp	r24, r18
 302:	93 07       	cpc	r25, r19
 304:	09 f0       	breq	.+2      	; 0x308 <irmp_get_data+0x3c>
 306:	45 c0       	rjmp	.+138    	; 0x392 <irmp_get_data+0xc6>
 308:	80 91 67 00 	lds	r24, 0x0067
 30c:	90 91 68 00 	lds	r25, 0x0068
 310:	99 27       	eor	r25, r25
 312:	90 93 68 00 	sts	0x0068, r25
 316:	80 93 67 00 	sts	0x0067, r24
 31a:	20 91 67 00 	lds	r18, 0x0067
 31e:	30 91 68 00 	lds	r19, 0x0068
 322:	80 91 65 00 	lds	r24, 0x0065
 326:	90 91 66 00 	lds	r25, 0x0066
 32a:	98 2f       	mov	r25, r24
 32c:	88 27       	eor	r24, r24
 32e:	82 2b       	or	r24, r18
 330:	93 2b       	or	r25, r19
 332:	2a c0       	rjmp	.+84     	; 0x388 <irmp_get_data+0xbc>
 334:	80 91 67 00 	lds	r24, 0x0067
 338:	90 91 68 00 	lds	r25, 0x0068
 33c:	20 91 67 00 	lds	r18, 0x0067
 340:	30 91 68 00 	lds	r19, 0x0068
 344:	89 2f       	mov	r24, r25
 346:	99 27       	eor	r25, r25
 348:	20 95       	com	r18
 34a:	30 95       	com	r19
 34c:	33 27       	eor	r19, r19
 34e:	82 17       	cp	r24, r18
 350:	93 07       	cpc	r25, r19
 352:	09 f4       	brne	.+2      	; 0x356 <irmp_get_data+0x8a>
 354:	14 c0       	rjmp	.+40     	; 0x37e <irmp_get_data+0xb2>
 356:	80 91 69 00 	lds	r24, 0x0069
 35a:	90 91 6a 00 	lds	r25, 0x006A
 35e:	8e 3e       	cpi	r24, 0xEE	; 238
 360:	97 48       	sbci	r25, 0x87	; 135
 362:	b9 f4       	brne	.+46     	; 0x392 <irmp_get_data+0xc6>
 364:	8b e0       	ldi	r24, 0x0B	; 11
 366:	80 93 6b 00 	sts	0x006B, r24
 36a:	80 91 67 00 	lds	r24, 0x0067
 36e:	90 91 68 00 	lds	r25, 0x0068
 372:	89 2f       	mov	r24, r25
 374:	99 27       	eor	r25, r25
 376:	90 93 6a 00 	sts	0x006A, r25
 37a:	80 93 69 00 	sts	0x0069, r24
 37e:	80 91 67 00 	lds	r24, 0x0067
 382:	90 91 68 00 	lds	r25, 0x0068
 386:	99 27       	eor	r25, r25
 388:	90 93 68 00 	sts	0x0068, r25
 38c:	80 93 67 00 	sts	0x0067, r24
 390:	06 c0       	rjmp	.+12     	; 0x39e <irmp_get_data+0xd2>
 392:	80 e0       	ldi	r24, 0x00	; 0
 394:	10 92 6c 00 	sts	0x006C, r1
 398:	08 95       	ret
 39a:	80 e0       	ldi	r24, 0x00	; 0
 39c:	08 95       	ret
 39e:	80 91 6b 00 	lds	r24, 0x006B
 3a2:	80 83       	st	Z, r24
 3a4:	80 91 69 00 	lds	r24, 0x0069
 3a8:	90 91 6a 00 	lds	r25, 0x006A
 3ac:	92 83       	std	Z+2, r25	; 0x02
 3ae:	81 83       	std	Z+1, r24	; 0x01
 3b0:	80 91 67 00 	lds	r24, 0x0067
 3b4:	90 91 68 00 	lds	r25, 0x0068
 3b8:	94 83       	std	Z+4, r25	; 0x04
 3ba:	83 83       	std	Z+3, r24	; 0x03
 3bc:	80 91 64 00 	lds	r24, 0x0064
 3c0:	85 83       	std	Z+5, r24	; 0x05
 3c2:	10 92 68 00 	sts	0x0068, r1
 3c6:	10 92 67 00 	sts	0x0067, r1
 3ca:	10 92 6a 00 	sts	0x006A, r1
 3ce:	10 92 69 00 	sts	0x0069, r1
 3d2:	10 92 64 00 	sts	0x0064, r1
 3d6:	81 e0       	ldi	r24, 0x01	; 1
 3d8:	dd cf       	rjmp	.-70     	; 0x394 <irmp_get_data+0xc8>

000003da <irmp_ISR>:
 3da:	80 b3       	in	r24, 0x10	; 16
 3dc:	90 91 6c 00 	lds	r25, 0x006C
 3e0:	91 11       	cpse	r25, r1
 3e2:	61 c2       	rjmp	.+1218   	; 0x8a6 <__stack+0x47>
 3e4:	84 70       	andi	r24, 0x04	; 4
 3e6:	90 91 6d 00 	lds	r25, 0x006D
 3ea:	91 11       	cpse	r25, r1
 3ec:	34 c0       	rjmp	.+104    	; 0x456 <irmp_ISR+0x7c>
 3ee:	90 91 6e 00 	lds	r25, 0x006E
 3f2:	81 11       	cpse	r24, r1
 3f4:	04 c0       	rjmp	.+8      	; 0x3fe <irmp_ISR+0x24>
 3f6:	9f 5f       	subi	r25, 0xFF	; 255
 3f8:	90 93 6e 00 	sts	0x006E, r25
 3fc:	54 c2       	rjmp	.+1192   	; 0x8a6 <__stack+0x47>
 3fe:	99 23       	and	r25, r25
 400:	d9 f0       	breq	.+54     	; 0x438 <irmp_ISR+0x5e>
 402:	81 e0       	ldi	r24, 0x01	; 1
 404:	80 93 6d 00 	sts	0x006D, r24
 408:	80 93 6f 00 	sts	0x006F, r24
 40c:	10 92 70 00 	sts	0x0070, r1
 410:	10 92 72 00 	sts	0x0072, r1
 414:	10 92 71 00 	sts	0x0071, r1
 418:	10 92 74 00 	sts	0x0074, r1
 41c:	10 92 73 00 	sts	0x0073, r1
 420:	10 92 75 00 	sts	0x0075, r1
 424:	10 92 77 00 	sts	0x0077, r1
 428:	10 92 76 00 	sts	0x0076, r1
 42c:	9f ef       	ldi	r25, 0xFF	; 255
 42e:	90 93 78 00 	sts	0x0078, r25
 432:	80 93 79 00 	sts	0x0079, r24
 436:	37 c2       	rjmp	.+1134   	; 0x8a6 <__stack+0x47>
 438:	80 91 7a 00 	lds	r24, 0x007A
 43c:	90 91 7b 00 	lds	r25, 0x007B
 440:	8f 3f       	cpi	r24, 0xFF	; 255
 442:	2f ef       	ldi	r18, 0xFF	; 255
 444:	92 07       	cpc	r25, r18
 446:	09 f4       	brne	.+2      	; 0x44a <irmp_ISR+0x70>
 448:	2e c2       	rjmp	.+1116   	; 0x8a6 <__stack+0x47>
 44a:	01 96       	adiw	r24, 0x01	; 1
 44c:	90 93 7b 00 	sts	0x007B, r25
 450:	80 93 7a 00 	sts	0x007A, r24
 454:	28 c2       	rjmp	.+1104   	; 0x8a6 <__stack+0x47>
 456:	90 91 6f 00 	lds	r25, 0x006F
 45a:	99 23       	and	r25, r25
 45c:	09 f4       	brne	.+2      	; 0x460 <irmp_ISR+0x86>
 45e:	68 c0       	rjmp	.+208    	; 0x530 <irmp_ISR+0x156>
 460:	88 23       	and	r24, r24
 462:	49 f0       	breq	.+18     	; 0x476 <irmp_ISR+0x9c>
 464:	80 91 79 00 	lds	r24, 0x0079
 468:	8f 5f       	subi	r24, 0xFF	; 255
 46a:	80 93 79 00 	sts	0x0079, r24
 46e:	8a 3e       	cpi	r24, 0xEA	; 234
 470:	08 f4       	brcc	.+2      	; 0x474 <irmp_ISR+0x9a>
 472:	2b c1       	rjmp	.+598    	; 0x6ca <irmp_ISR+0x2f0>
 474:	bd c0       	rjmp	.+378    	; 0x5f0 <irmp_ISR+0x216>
 476:	20 91 6e 00 	lds	r18, 0x006E
 47a:	82 2f       	mov	r24, r18
 47c:	8f 51       	subi	r24, 0x1F	; 31
 47e:	8b 30       	cpi	r24, 0x0B	; 11
 480:	40 f4       	brcc	.+16     	; 0x492 <irmp_ISR+0xb8>
 482:	80 91 79 00 	lds	r24, 0x0079
 486:	90 e0       	ldi	r25, 0x00	; 0
 488:	86 30       	cpi	r24, 0x06	; 6
 48a:	91 05       	cpc	r25, r1
 48c:	14 f0       	brlt	.+4      	; 0x492 <irmp_ISR+0xb8>
 48e:	0b 97       	sbiw	r24, 0x0b	; 11
 490:	6c f1       	brlt	.+90     	; 0x4ec <irmp_ISR+0x112>
 492:	82 2f       	mov	r24, r18
 494:	8e 55       	subi	r24, 0x5E	; 94
 496:	84 35       	cpi	r24, 0x54	; 84
 498:	60 f4       	brcc	.+24     	; 0x4b2 <irmp_ISR+0xd8>
 49a:	80 91 79 00 	lds	r24, 0x0079
 49e:	90 e0       	ldi	r25, 0x00	; 0
 4a0:	8e 32       	cpi	r24, 0x2E	; 46
 4a2:	91 05       	cpc	r25, r1
 4a4:	24 f0       	brlt	.+8      	; 0x4ae <irmp_ISR+0xd4>
 4a6:	8a 35       	cpi	r24, 0x5A	; 90
 4a8:	91 05       	cpc	r25, r1
 4aa:	1c f1       	brlt	.+70     	; 0x4f2 <irmp_ISR+0x118>
 4ac:	02 c0       	rjmp	.+4      	; 0x4b2 <irmp_ISR+0xd8>
 4ae:	47 97       	sbiw	r24, 0x17	; 23
 4b0:	1c f5       	brge	.+70     	; 0x4f8 <irmp_ISR+0x11e>
 4b2:	82 2f       	mov	r24, r18
 4b4:	8c 53       	subi	r24, 0x3C	; 60
 4b6:	80 31       	cpi	r24, 0x10	; 16
 4b8:	48 f4       	brcc	.+18     	; 0x4cc <irmp_ISR+0xf2>
 4ba:	80 91 79 00 	lds	r24, 0x0079
 4be:	90 e0       	ldi	r25, 0x00	; 0
 4c0:	8c 33       	cpi	r24, 0x3C	; 60
 4c2:	91 05       	cpc	r25, r1
 4c4:	1c f0       	brlt	.+6      	; 0x4cc <irmp_ISR+0xf2>
 4c6:	8c 34       	cpi	r24, 0x4C	; 76
 4c8:	91 05       	cpc	r25, r1
 4ca:	cc f0       	brlt	.+50     	; 0x4fe <irmp_ISR+0x124>
 4cc:	28 52       	subi	r18, 0x28	; 40
 4ce:	27 31       	cpi	r18, 0x17	; 23
 4d0:	40 f4       	brcc	.+16     	; 0x4e2 <irmp_ISR+0x108>
 4d2:	80 91 79 00 	lds	r24, 0x0079
 4d6:	90 e0       	ldi	r25, 0x00	; 0
 4d8:	83 31       	cpi	r24, 0x13	; 19
 4da:	91 05       	cpc	r25, r1
 4dc:	14 f0       	brlt	.+4      	; 0x4e2 <irmp_ISR+0x108>
 4de:	80 97       	sbiw	r24, 0x20	; 32
 4e0:	8c f0       	brlt	.+34     	; 0x504 <irmp_ISR+0x12a>
 4e2:	10 92 6d 00 	sts	0x006D, r1
 4e6:	60 e0       	ldi	r22, 0x00	; 0
 4e8:	70 e0       	ldi	r23, 0x00	; 0
 4ea:	0e c0       	rjmp	.+28     	; 0x508 <irmp_ISR+0x12e>
 4ec:	64 e5       	ldi	r22, 0x54	; 84
 4ee:	70 e0       	ldi	r23, 0x00	; 0
 4f0:	0b c0       	rjmp	.+22     	; 0x508 <irmp_ISR+0x12e>
 4f2:	65 e6       	ldi	r22, 0x65	; 101
 4f4:	70 e0       	ldi	r23, 0x00	; 0
 4f6:	08 c0       	rjmp	.+16     	; 0x508 <irmp_ISR+0x12e>
 4f8:	66 e7       	ldi	r22, 0x76	; 118
 4fa:	70 e0       	ldi	r23, 0x00	; 0
 4fc:	05 c0       	rjmp	.+10     	; 0x508 <irmp_ISR+0x12e>
 4fe:	67 e8       	ldi	r22, 0x87	; 135
 500:	70 e0       	ldi	r23, 0x00	; 0
 502:	02 c0       	rjmp	.+4      	; 0x508 <irmp_ISR+0x12e>
 504:	68 e9       	ldi	r22, 0x98	; 152
 506:	70 e0       	ldi	r23, 0x00	; 0
 508:	80 91 6d 00 	lds	r24, 0x006D
 50c:	88 23       	and	r24, r24
 50e:	31 f0       	breq	.+12     	; 0x51c <irmp_ISR+0x142>
 510:	41 e1       	ldi	r20, 0x11	; 17
 512:	50 e0       	ldi	r21, 0x00	; 0
 514:	8c e7       	ldi	r24, 0x7C	; 124
 516:	90 e0       	ldi	r25, 0x00	; 0
 518:	0e 94 15 05 	call	0xa2a	; 0xa2a <memcpy_P>
 51c:	10 92 78 00 	sts	0x0078, r1
 520:	81 e0       	ldi	r24, 0x01	; 1
 522:	80 93 6e 00 	sts	0x006E, r24
 526:	10 92 79 00 	sts	0x0079, r1
 52a:	10 92 6f 00 	sts	0x006F, r1
 52e:	cd c0       	rjmp	.+410    	; 0x6ca <irmp_ISR+0x2f0>
 530:	90 91 70 00 	lds	r25, 0x0070
 534:	99 23       	and	r25, r25
 536:	09 f4       	brne	.+2      	; 0x53a <irmp_ISR+0x160>
 538:	bb c0       	rjmp	.+374    	; 0x6b0 <irmp_ISR+0x2d6>
 53a:	88 23       	and	r24, r24
 53c:	09 f4       	brne	.+2      	; 0x540 <irmp_ISR+0x166>
 53e:	b6 c1       	rjmp	.+876    	; 0x8ac <__stack+0x4d>
 540:	40 91 78 00 	lds	r20, 0x0078
 544:	80 91 89 00 	lds	r24, 0x0089
 548:	48 13       	cpse	r20, r24
 54a:	13 c0       	rjmp	.+38     	; 0x572 <irmp_ISR+0x198>
 54c:	90 91 8a 00 	lds	r25, 0x008A
 550:	91 30       	cpi	r25, 0x01	; 1
 552:	79 f4       	brne	.+30     	; 0x572 <irmp_ISR+0x198>
 554:	80 91 6e 00 	lds	r24, 0x006E
 558:	90 91 81 00 	lds	r25, 0x0081
 55c:	89 17       	cp	r24, r25
 55e:	08 f4       	brcc	.+2      	; 0x562 <irmp_ISR+0x188>
 560:	47 c0       	rjmp	.+142    	; 0x5f0 <irmp_ISR+0x216>
 562:	90 91 82 00 	lds	r25, 0x0082
 566:	98 17       	cp	r25, r24
 568:	08 f4       	brcc	.+2      	; 0x56c <irmp_ISR+0x192>
 56a:	42 c0       	rjmp	.+132    	; 0x5f0 <irmp_ISR+0x216>
 56c:	10 92 8a 00 	sts	0x008A, r1
 570:	ac c0       	rjmp	.+344    	; 0x6ca <irmp_ISR+0x2f0>
 572:	90 91 79 00 	lds	r25, 0x0079
 576:	9f 5f       	subi	r25, 0xFF	; 255
 578:	90 93 79 00 	sts	0x0079, r25
 57c:	20 91 7c 00 	lds	r18, 0x007C
 580:	21 30       	cpi	r18, 0x01	; 1
 582:	21 f5       	brne	.+72     	; 0x5cc <irmp_ISR+0x1f2>
 584:	29 2f       	mov	r18, r25
 586:	30 e0       	ldi	r19, 0x00	; 0
 588:	2c 30       	cpi	r18, 0x0C	; 12
 58a:	31 05       	cpc	r19, r1
 58c:	fc f0       	brlt	.+62     	; 0x5cc <irmp_ISR+0x1f2>
 58e:	4b 30       	cpi	r20, 0x0B	; 11
 590:	e8 f0       	brcs	.+58     	; 0x5cc <irmp_ISR+0x1f2>
 592:	84 2f       	mov	r24, r20
 594:	8f 5f       	subi	r24, 0xFF	; 255
 596:	80 93 89 00 	sts	0x0089, r24
 59a:	84 2f       	mov	r24, r20
 59c:	90 e0       	ldi	r25, 0x00	; 0
 59e:	0b 97       	sbiw	r24, 0x0b	; 11
 5a0:	38 2f       	mov	r19, r24
 5a2:	22 27       	eor	r18, r18
 5a4:	80 91 73 00 	lds	r24, 0x0073
 5a8:	90 91 74 00 	lds	r25, 0x0074
 5ac:	82 2b       	or	r24, r18
 5ae:	93 2b       	or	r25, r19
 5b0:	90 93 74 00 	sts	0x0074, r25
 5b4:	80 93 73 00 	sts	0x0073, r24
 5b8:	80 91 87 00 	lds	r24, 0x0087
 5bc:	84 0f       	add	r24, r20
 5be:	8f 5f       	subi	r24, 0xFF	; 255
 5c0:	80 93 88 00 	sts	0x0088, r24
 5c4:	8a e0       	ldi	r24, 0x0A	; 10
 5c6:	80 93 79 00 	sts	0x0079, r24
 5ca:	70 c1       	rjmp	.+736    	; 0x8ac <__stack+0x4d>
 5cc:	9a 3e       	cpi	r25, 0xEA	; 234
 5ce:	08 f4       	brcc	.+2      	; 0x5d2 <irmp_ISR+0x1f8>
 5d0:	7c c0       	rjmp	.+248    	; 0x6ca <irmp_ISR+0x2f0>
 5d2:	24 2f       	mov	r18, r20
 5d4:	30 e0       	ldi	r19, 0x00	; 0
 5d6:	90 e0       	ldi	r25, 0x00	; 0
 5d8:	01 97       	sbiw	r24, 0x01	; 1
 5da:	28 17       	cp	r18, r24
 5dc:	39 07       	cpc	r19, r25
 5de:	41 f4       	brne	.+16     	; 0x5f0 <irmp_ISR+0x216>
 5e0:	80 91 8a 00 	lds	r24, 0x008A
 5e4:	81 11       	cpse	r24, r1
 5e6:	04 c0       	rjmp	.+8      	; 0x5f0 <irmp_ISR+0x216>
 5e8:	4f 5f       	subi	r20, 0xFF	; 255
 5ea:	40 93 78 00 	sts	0x0078, r20
 5ee:	6d c0       	rjmp	.+218    	; 0x6ca <irmp_ISR+0x2f0>
 5f0:	10 92 6d 00 	sts	0x006D, r1
 5f4:	10 92 6e 00 	sts	0x006E, r1
 5f8:	10 92 79 00 	sts	0x0079, r1
 5fc:	66 c0       	rjmp	.+204    	; 0x6ca <irmp_ISR+0x2f0>
 5fe:	90 91 78 00 	lds	r25, 0x0078
 602:	90 31       	cpi	r25, 0x10	; 16
 604:	19 f5       	brne	.+70     	; 0x64c <irmp_ISR+0x272>
 606:	85 50       	subi	r24, 0x05	; 5
 608:	88 30       	cpi	r24, 0x08	; 8
 60a:	08 f0       	brcs	.+2      	; 0x60e <irmp_ISR+0x234>
 60c:	4b c0       	rjmp	.+150    	; 0x6a4 <irmp_ISR+0x2ca>
 60e:	20 91 79 00 	lds	r18, 0x0079
 612:	82 2f       	mov	r24, r18
 614:	90 e0       	ldi	r25, 0x00	; 0
 616:	8c 33       	cpi	r24, 0x3C	; 60
 618:	91 05       	cpc	r25, r1
 61a:	4c f0       	brlt	.+18     	; 0x62e <irmp_ISR+0x254>
 61c:	8c 34       	cpi	r24, 0x4C	; 76
 61e:	91 05       	cpc	r25, r1
 620:	34 f4       	brge	.+12     	; 0x62e <irmp_ISR+0x254>
 622:	10 92 70 00 	sts	0x0070, r1
 626:	81 e1       	ldi	r24, 0x11	; 17
 628:	80 93 78 00 	sts	0x0078, r24
 62c:	3f c0       	rjmp	.+126    	; 0x6ac <irmp_ISR+0x2d2>
 62e:	8a e0       	ldi	r24, 0x0A	; 10
 630:	80 93 7c 00 	sts	0x007C, r24
 634:	80 e1       	ldi	r24, 0x10	; 16
 636:	80 93 87 00 	sts	0x0087, r24
 63a:	80 e2       	ldi	r24, 0x20	; 32
 63c:	80 93 88 00 	sts	0x0088, r24
 640:	80 93 89 00 	sts	0x0089, r24
 644:	2f 50       	subi	r18, 0x0F	; 15
 646:	20 31       	cpi	r18, 0x10	; 16
 648:	38 f5       	brcc	.+78     	; 0x698 <irmp_ISR+0x2be>
 64a:	12 c0       	rjmp	.+36     	; 0x670 <irmp_ISR+0x296>
 64c:	90 91 7d 00 	lds	r25, 0x007D
 650:	89 17       	cp	r24, r25
 652:	80 f0       	brcs	.+32     	; 0x674 <irmp_ISR+0x29a>
 654:	90 91 7e 00 	lds	r25, 0x007E
 658:	98 17       	cp	r25, r24
 65a:	60 f0       	brcs	.+24     	; 0x674 <irmp_ISR+0x29a>
 65c:	90 91 79 00 	lds	r25, 0x0079
 660:	20 91 7f 00 	lds	r18, 0x007F
 664:	92 17       	cp	r25, r18
 666:	30 f0       	brcs	.+12     	; 0x674 <irmp_ISR+0x29a>
 668:	20 91 80 00 	lds	r18, 0x0080
 66c:	29 17       	cp	r18, r25
 66e:	10 f0       	brcs	.+4      	; 0x674 <irmp_ISR+0x29a>
 670:	81 e0       	ldi	r24, 0x01	; 1
 672:	13 c0       	rjmp	.+38     	; 0x69a <irmp_ISR+0x2c0>
 674:	90 91 81 00 	lds	r25, 0x0081
 678:	89 17       	cp	r24, r25
 67a:	a0 f0       	brcs	.+40     	; 0x6a4 <irmp_ISR+0x2ca>
 67c:	90 91 82 00 	lds	r25, 0x0082
 680:	98 17       	cp	r25, r24
 682:	80 f0       	brcs	.+32     	; 0x6a4 <irmp_ISR+0x2ca>
 684:	80 91 79 00 	lds	r24, 0x0079
 688:	90 91 83 00 	lds	r25, 0x0083
 68c:	89 17       	cp	r24, r25
 68e:	50 f0       	brcs	.+20     	; 0x6a4 <irmp_ISR+0x2ca>
 690:	90 91 84 00 	lds	r25, 0x0084
 694:	98 17       	cp	r25, r24
 696:	30 f0       	brcs	.+12     	; 0x6a4 <irmp_ISR+0x2ca>
 698:	80 e0       	ldi	r24, 0x00	; 0
 69a:	0e 94 91 00 	call	0x122	; 0x122 <irmp_store_bit>
 69e:	10 92 70 00 	sts	0x0070, r1
 6a2:	04 c0       	rjmp	.+8      	; 0x6ac <irmp_ISR+0x2d2>
 6a4:	10 92 6d 00 	sts	0x006D, r1
 6a8:	10 92 79 00 	sts	0x0079, r1
 6ac:	81 e0       	ldi	r24, 0x01	; 1
 6ae:	05 c0       	rjmp	.+10     	; 0x6ba <irmp_ISR+0x2e0>
 6b0:	81 11       	cpse	r24, r1
 6b2:	06 c0       	rjmp	.+12     	; 0x6c0 <irmp_ISR+0x2e6>
 6b4:	80 91 6e 00 	lds	r24, 0x006E
 6b8:	8f 5f       	subi	r24, 0xFF	; 255
 6ba:	80 93 6e 00 	sts	0x006E, r24
 6be:	05 c0       	rjmp	.+10     	; 0x6ca <irmp_ISR+0x2f0>
 6c0:	81 e0       	ldi	r24, 0x01	; 1
 6c2:	80 93 70 00 	sts	0x0070, r24
 6c6:	80 93 79 00 	sts	0x0079, r24
 6ca:	80 91 6d 00 	lds	r24, 0x006D
 6ce:	88 23       	and	r24, r24
 6d0:	09 f4       	brne	.+2      	; 0x6d4 <irmp_ISR+0x2fa>
 6d2:	e9 c0       	rjmp	.+466    	; 0x8a6 <__stack+0x47>
 6d4:	50 91 78 00 	lds	r21, 0x0078
 6d8:	80 91 89 00 	lds	r24, 0x0089
 6dc:	58 13       	cpse	r21, r24
 6de:	e3 c0       	rjmp	.+454    	; 0x8a6 <__stack+0x47>
 6e0:	80 91 8a 00 	lds	r24, 0x008A
 6e4:	81 11       	cpse	r24, r1
 6e6:	df c0       	rjmp	.+446    	; 0x8a6 <__stack+0x47>
 6e8:	80 91 60 00 	lds	r24, 0x0060
 6ec:	90 91 61 00 	lds	r25, 0x0061
 6f0:	20 91 71 00 	lds	r18, 0x0071
 6f4:	30 91 72 00 	lds	r19, 0x0072
 6f8:	82 17       	cp	r24, r18
 6fa:	93 07       	cpc	r25, r19
 6fc:	69 f4       	brne	.+26     	; 0x718 <irmp_ISR+0x33e>
 6fe:	20 91 7a 00 	lds	r18, 0x007A
 702:	30 91 7b 00 	lds	r19, 0x007B
 706:	20 3b       	cpi	r18, 0xB0	; 176
 708:	34 40       	sbci	r19, 0x04	; 4
 70a:	30 f4       	brcc	.+12     	; 0x718 <irmp_ISR+0x33e>
 70c:	20 91 8d 00 	lds	r18, 0x008D
 710:	2f 5f       	subi	r18, 0xFF	; 255
 712:	20 93 8d 00 	sts	0x008D, r18
 716:	02 c0       	rjmp	.+4      	; 0x71c <irmp_ISR+0x342>
 718:	10 92 8d 00 	sts	0x008D, r1
 71c:	40 91 7c 00 	lds	r20, 0x007C
 720:	41 30       	cpi	r20, 0x01	; 1
 722:	31 f4       	brne	.+12     	; 0x730 <irmp_ISR+0x356>
 724:	20 91 8d 00 	lds	r18, 0x008D
 728:	21 50       	subi	r18, 0x01	; 1
 72a:	22 30       	cpi	r18, 0x02	; 2
 72c:	a8 f4       	brcc	.+42     	; 0x758 <irmp_ISR+0x37e>
 72e:	0f c0       	rjmp	.+30     	; 0x74e <irmp_ISR+0x374>
 730:	45 30       	cpi	r20, 0x05	; 5
 732:	29 f4       	brne	.+10     	; 0x73e <irmp_ISR+0x364>
 734:	20 91 8d 00 	lds	r18, 0x008D
 738:	21 30       	cpi	r18, 0x01	; 1
 73a:	71 f4       	brne	.+28     	; 0x758 <irmp_ISR+0x37e>
 73c:	08 c0       	rjmp	.+16     	; 0x74e <irmp_ISR+0x374>
 73e:	4a 30       	cpi	r20, 0x0A	; 10
 740:	11 f0       	breq	.+4      	; 0x746 <irmp_ISR+0x36c>
 742:	49 32       	cpi	r20, 0x29	; 41
 744:	49 f4       	brne	.+18     	; 0x758 <irmp_ISR+0x37e>
 746:	20 91 8d 00 	lds	r18, 0x008D
 74a:	20 ff       	sbrs	r18, 0
 74c:	05 c0       	rjmp	.+10     	; 0x758 <irmp_ISR+0x37e>
 74e:	10 92 7b 00 	sts	0x007B, r1
 752:	10 92 7a 00 	sts	0x007A, r1
 756:	6f c0       	rjmp	.+222    	; 0x836 <irmp_ISR+0x45c>
 758:	21 e0       	ldi	r18, 0x01	; 1
 75a:	20 93 6c 00 	sts	0x006C, r18
 75e:	42 30       	cpi	r20, 0x02	; 2
 760:	11 f5       	brne	.+68     	; 0x7a6 <irmp_ISR+0x3cc>
 762:	51 11       	cpse	r21, r1
 764:	48 c0       	rjmp	.+144    	; 0x7f6 <irmp_ISR+0x41c>
 766:	20 91 7a 00 	lds	r18, 0x007A
 76a:	30 91 7b 00 	lds	r19, 0x007B
 76e:	28 30       	cpi	r18, 0x08	; 8
 770:	37 40       	sbci	r19, 0x07	; 7
 772:	b0 f4       	brcc	.+44     	; 0x7a0 <irmp_ISR+0x3c6>
 774:	20 91 62 00 	lds	r18, 0x0062
 778:	30 91 63 00 	lds	r19, 0x0063
 77c:	30 93 74 00 	sts	0x0074, r19
 780:	20 93 73 00 	sts	0x0073, r18
 784:	90 93 72 00 	sts	0x0072, r25
 788:	80 93 71 00 	sts	0x0071, r24
 78c:	20 91 64 00 	lds	r18, 0x0064
 790:	21 60       	ori	r18, 0x01	; 1
 792:	20 93 64 00 	sts	0x0064, r18
 796:	10 92 7b 00 	sts	0x007B, r1
 79a:	10 92 7a 00 	sts	0x007A, r1
 79e:	2b c0       	rjmp	.+86     	; 0x7f6 <irmp_ISR+0x41c>
 7a0:	10 92 6c 00 	sts	0x006C, r1
 7a4:	28 c0       	rjmp	.+80     	; 0x7f6 <irmp_ISR+0x41c>
 7a6:	45 30       	cpi	r20, 0x05	; 5
 7a8:	31 f5       	brne	.+76     	; 0x7f6 <irmp_ISR+0x41c>
 7aa:	60 91 8e 00 	lds	r22, 0x008E
 7ae:	50 91 8f 00 	lds	r21, 0x008F
 7b2:	30 91 90 00 	lds	r19, 0x0090
 7b6:	25 2f       	mov	r18, r21
 7b8:	26 27       	eor	r18, r22
 7ba:	2f 70       	andi	r18, 0x0F	; 15
 7bc:	62 95       	swap	r22
 7be:	6f 70       	andi	r22, 0x0F	; 15
 7c0:	26 27       	eor	r18, r22
 7c2:	52 95       	swap	r21
 7c4:	5f 70       	andi	r21, 0x0F	; 15
 7c6:	25 27       	eor	r18, r21
 7c8:	53 2f       	mov	r21, r19
 7ca:	5f 70       	andi	r21, 0x0F	; 15
 7cc:	25 13       	cpse	r18, r21
 7ce:	10 92 6c 00 	sts	0x006C, r1
 7d2:	20 91 91 00 	lds	r18, 0x0091
 7d6:	23 27       	eor	r18, r19
 7d8:	30 91 92 00 	lds	r19, 0x0092
 7dc:	23 27       	eor	r18, r19
 7de:	30 91 93 00 	lds	r19, 0x0093
 7e2:	23 13       	cpse	r18, r19
 7e4:	10 92 6c 00 	sts	0x006C, r1
 7e8:	20 91 64 00 	lds	r18, 0x0064
 7ec:	30 91 75 00 	lds	r19, 0x0075
 7f0:	23 2b       	or	r18, r19
 7f2:	20 93 64 00 	sts	0x0064, r18
 7f6:	40 93 6b 00 	sts	0x006B, r20
 7fa:	20 91 73 00 	lds	r18, 0x0073
 7fe:	30 91 74 00 	lds	r19, 0x0074
 802:	30 93 6a 00 	sts	0x006A, r19
 806:	20 93 69 00 	sts	0x0069, r18
 80a:	42 30       	cpi	r20, 0x02	; 2
 80c:	21 f4       	brne	.+8      	; 0x816 <irmp_ISR+0x43c>
 80e:	30 93 63 00 	sts	0x0063, r19
 812:	20 93 62 00 	sts	0x0062, r18
 816:	20 91 71 00 	lds	r18, 0x0071
 81a:	30 91 72 00 	lds	r19, 0x0072
 81e:	30 93 68 00 	sts	0x0068, r19
 822:	20 93 67 00 	sts	0x0067, r18
 826:	20 91 76 00 	lds	r18, 0x0076
 82a:	30 91 77 00 	lds	r19, 0x0077
 82e:	30 93 66 00 	sts	0x0066, r19
 832:	20 93 65 00 	sts	0x0065, r18
 836:	20 91 6c 00 	lds	r18, 0x006C
 83a:	22 23       	and	r18, r18
 83c:	51 f1       	breq	.+84     	; 0x892 <__stack+0x33>
 83e:	20 91 71 00 	lds	r18, 0x0071
 842:	30 91 72 00 	lds	r19, 0x0072
 846:	40 91 73 00 	lds	r20, 0x0073
 84a:	50 91 74 00 	lds	r21, 0x0074
 84e:	82 17       	cp	r24, r18
 850:	93 07       	cpc	r25, r19
 852:	99 f4       	brne	.+38     	; 0x87a <__stack+0x1b>
 854:	80 91 62 00 	lds	r24, 0x0062
 858:	90 91 63 00 	lds	r25, 0x0063
 85c:	84 17       	cp	r24, r20
 85e:	95 07       	cpc	r25, r21
 860:	61 f4       	brne	.+24     	; 0x87a <__stack+0x1b>
 862:	80 91 7a 00 	lds	r24, 0x007A
 866:	90 91 7b 00 	lds	r25, 0x007B
 86a:	8a 3c       	cpi	r24, 0xCA	; 202
 86c:	98 40       	sbci	r25, 0x08	; 8
 86e:	28 f4       	brcc	.+10     	; 0x87a <__stack+0x1b>
 870:	80 91 64 00 	lds	r24, 0x0064
 874:	81 60       	ori	r24, 0x01	; 1
 876:	80 93 64 00 	sts	0x0064, r24
 87a:	50 93 63 00 	sts	0x0063, r21
 87e:	40 93 62 00 	sts	0x0062, r20
 882:	30 93 61 00 	sts	0x0061, r19
 886:	20 93 60 00 	sts	0x0060, r18
 88a:	10 92 7b 00 	sts	0x007B, r1
 88e:	10 92 7a 00 	sts	0x007A, r1
 892:	10 92 6d 00 	sts	0x006D, r1
 896:	10 92 72 00 	sts	0x0072, r1
 89a:	10 92 71 00 	sts	0x0071, r1
 89e:	10 92 6e 00 	sts	0x006E, r1
 8a2:	10 92 79 00 	sts	0x0079, r1
 8a6:	80 91 6c 00 	lds	r24, 0x006C
 8aa:	08 95       	ret
 8ac:	90 91 7c 00 	lds	r25, 0x007C
 8b0:	80 91 6e 00 	lds	r24, 0x006E
 8b4:	93 30       	cpi	r25, 0x03	; 3
 8b6:	09 f0       	breq	.+2      	; 0x8ba <__stack+0x5b>
 8b8:	c9 ce       	rjmp	.-622    	; 0x64c <irmp_ISR+0x272>
 8ba:	a1 ce       	rjmp	.-702    	; 0x5fe <irmp_ISR+0x224>

000008bc <uart_puts>:
 8bc:	fc 01       	movw	r30, r24
 8be:	03 c0       	rjmp	.+6      	; 0x8c6 <uart_puts+0xa>
 8c0:	5d 9b       	sbis	0x0b, 5	; 11
 8c2:	fe cf       	rjmp	.-4      	; 0x8c0 <uart_puts+0x4>
 8c4:	8c b9       	out	0x0c, r24	; 12
 8c6:	81 91       	ld	r24, Z+
 8c8:	81 11       	cpse	r24, r1
 8ca:	fa cf       	rjmp	.-12     	; 0x8c0 <uart_puts+0x4>
 8cc:	08 95       	ret

000008ce <uart_puts_P>:
 8ce:	04 c0       	rjmp	.+8      	; 0x8d8 <uart_puts_P+0xa>
 8d0:	5d 9b       	sbis	0x0b, 5	; 11
 8d2:	fe cf       	rjmp	.-4      	; 0x8d0 <uart_puts_P+0x2>
 8d4:	2c b9       	out	0x0c, r18	; 12
 8d6:	01 96       	adiw	r24, 0x01	; 1
 8d8:	fc 01       	movw	r30, r24
 8da:	24 91       	lpm	r18, Z
 8dc:	21 11       	cpse	r18, r1
 8de:	f8 cf       	rjmp	.-16     	; 0x8d0 <uart_puts_P+0x2>
 8e0:	08 95       	ret

000008e2 <itoxx>:
 8e2:	fc 01       	movw	r30, r24
 8e4:	86 2f       	mov	r24, r22
 8e6:	82 95       	swap	r24
 8e8:	8f 70       	andi	r24, 0x0F	; 15
 8ea:	8a 30       	cpi	r24, 0x0A	; 10
 8ec:	10 f4       	brcc	.+4      	; 0x8f2 <itoxx+0x10>
 8ee:	80 5d       	subi	r24, 0xD0	; 208
 8f0:	01 c0       	rjmp	.+2      	; 0x8f4 <itoxx+0x12>
 8f2:	89 5c       	subi	r24, 0xC9	; 201
 8f4:	80 83       	st	Z, r24
 8f6:	6f 70       	andi	r22, 0x0F	; 15
 8f8:	6a 30       	cpi	r22, 0x0A	; 10
 8fa:	10 f4       	brcc	.+4      	; 0x900 <itoxx+0x1e>
 8fc:	60 5d       	subi	r22, 0xD0	; 208
 8fe:	01 c0       	rjmp	.+2      	; 0x902 <itoxx+0x20>
 900:	69 5c       	subi	r22, 0xC9	; 201
 902:	61 83       	std	Z+1, r22	; 0x01
 904:	12 82       	std	Z+2, r1	; 0x02
 906:	08 95       	ret

00000908 <__vector_7>:
 908:	1f 92       	push	r1
 90a:	0f 92       	push	r0
 90c:	0f b6       	in	r0, 0x3f	; 63
 90e:	0f 92       	push	r0
 910:	11 24       	eor	r1, r1
 912:	2f 93       	push	r18
 914:	3f 93       	push	r19
 916:	4f 93       	push	r20
 918:	5f 93       	push	r21
 91a:	6f 93       	push	r22
 91c:	7f 93       	push	r23
 91e:	8f 93       	push	r24
 920:	9f 93       	push	r25
 922:	af 93       	push	r26
 924:	bf 93       	push	r27
 926:	ef 93       	push	r30
 928:	ff 93       	push	r31
 92a:	0e 94 ed 01 	call	0x3da	; 0x3da <irmp_ISR>
 92e:	ff 91       	pop	r31
 930:	ef 91       	pop	r30
 932:	bf 91       	pop	r27
 934:	af 91       	pop	r26
 936:	9f 91       	pop	r25
 938:	8f 91       	pop	r24
 93a:	7f 91       	pop	r23
 93c:	6f 91       	pop	r22
 93e:	5f 91       	pop	r21
 940:	4f 91       	pop	r20
 942:	3f 91       	pop	r19
 944:	2f 91       	pop	r18
 946:	0f 90       	pop	r0
 948:	0f be       	out	0x3f, r0	; 63
 94a:	0f 90       	pop	r0
 94c:	1f 90       	pop	r1
 94e:	18 95       	reti

00000950 <main>:
 950:	cf 93       	push	r28
 952:	df 93       	push	r29
 954:	cd b7       	in	r28, 0x3d	; 61
 956:	de b7       	in	r29, 0x3e	; 62
 958:	29 97       	sbiw	r28, 0x09	; 9
 95a:	0f b6       	in	r0, 0x3f	; 63
 95c:	f8 94       	cli
 95e:	de bf       	out	0x3e, r29	; 62
 960:	0f be       	out	0x3f, r0	; 63
 962:	cd bf       	out	0x3d, r28	; 61
 964:	0e 94 63 01 	call	0x2c6	; 0x2c6 <irmp_init>
 968:	89 e2       	ldi	r24, 0x29	; 41
 96a:	94 e0       	ldi	r25, 0x04	; 4
 96c:	9b bd       	out	0x2b, r25	; 43
 96e:	8a bd       	out	0x2a, r24	; 42
 970:	89 e0       	ldi	r24, 0x09	; 9
 972:	8e bd       	out	0x2e, r24	; 46
 974:	80 e1       	ldi	r24, 0x10	; 16
 976:	89 bf       	out	0x39, r24	; 57
 978:	10 bc       	out	0x20, r1	; 32
 97a:	87 e6       	ldi	r24, 0x67	; 103
 97c:	89 b9       	out	0x09, r24	; 9
 97e:	59 98       	cbi	0x0b, 1	; 11
 980:	86 e8       	ldi	r24, 0x86	; 134
 982:	80 bd       	out	0x20, r24	; 32
 984:	53 9a       	sbi	0x0a, 3	; 10
 986:	78 94       	sei
 988:	ce 01       	movw	r24, r28
 98a:	01 96       	adiw	r24, 0x01	; 1
 98c:	0e 94 66 01 	call	0x2cc	; 0x2cc <irmp_get_data>
 990:	88 23       	and	r24, r24
 992:	d1 f3       	breq	.-12     	; 0x988 <main+0x38>
 994:	89 ea       	ldi	r24, 0xA9	; 169
 996:	90 e0       	ldi	r25, 0x00	; 0
 998:	0e 94 67 04 	call	0x8ce	; 0x8ce <uart_puts_P>
 99c:	69 81       	ldd	r22, Y+1	; 0x01
 99e:	ce 01       	movw	r24, r28
 9a0:	07 96       	adiw	r24, 0x07	; 7
 9a2:	0e 94 71 04 	call	0x8e2	; 0x8e2 <itoxx>
 9a6:	ce 01       	movw	r24, r28
 9a8:	07 96       	adiw	r24, 0x07	; 7
 9aa:	0e 94 5e 04 	call	0x8bc	; 0x8bc <uart_puts>
 9ae:	86 eb       	ldi	r24, 0xB6	; 182
 9b0:	90 e0       	ldi	r25, 0x00	; 0
 9b2:	0e 94 67 04 	call	0x8ce	; 0x8ce <uart_puts_P>
 9b6:	6b 81       	ldd	r22, Y+3	; 0x03
 9b8:	ce 01       	movw	r24, r28
 9ba:	07 96       	adiw	r24, 0x07	; 7
 9bc:	0e 94 71 04 	call	0x8e2	; 0x8e2 <itoxx>
 9c0:	ce 01       	movw	r24, r28
 9c2:	07 96       	adiw	r24, 0x07	; 7
 9c4:	0e 94 5e 04 	call	0x8bc	; 0x8bc <uart_puts>
 9c8:	6a 81       	ldd	r22, Y+2	; 0x02
 9ca:	ce 01       	movw	r24, r28
 9cc:	07 96       	adiw	r24, 0x07	; 7
 9ce:	0e 94 71 04 	call	0x8e2	; 0x8e2 <itoxx>
 9d2:	ce 01       	movw	r24, r28
 9d4:	07 96       	adiw	r24, 0x07	; 7
 9d6:	0e 94 5e 04 	call	0x8bc	; 0x8bc <uart_puts>
 9da:	85 ec       	ldi	r24, 0xC5	; 197
 9dc:	90 e0       	ldi	r25, 0x00	; 0
 9de:	0e 94 67 04 	call	0x8ce	; 0x8ce <uart_puts_P>
 9e2:	6d 81       	ldd	r22, Y+5	; 0x05
 9e4:	ce 01       	movw	r24, r28
 9e6:	07 96       	adiw	r24, 0x07	; 7
 9e8:	0e 94 71 04 	call	0x8e2	; 0x8e2 <itoxx>
 9ec:	ce 01       	movw	r24, r28
 9ee:	07 96       	adiw	r24, 0x07	; 7
 9f0:	0e 94 5e 04 	call	0x8bc	; 0x8bc <uart_puts>
 9f4:	6c 81       	ldd	r22, Y+4	; 0x04
 9f6:	ce 01       	movw	r24, r28
 9f8:	07 96       	adiw	r24, 0x07	; 7
 9fa:	0e 94 71 04 	call	0x8e2	; 0x8e2 <itoxx>
 9fe:	ce 01       	movw	r24, r28
 a00:	07 96       	adiw	r24, 0x07	; 7
 a02:	0e 94 5e 04 	call	0x8bc	; 0x8bc <uart_puts>
 a06:	84 ed       	ldi	r24, 0xD4	; 212
 a08:	90 e0       	ldi	r25, 0x00	; 0
 a0a:	0e 94 67 04 	call	0x8ce	; 0x8ce <uart_puts_P>
 a0e:	6e 81       	ldd	r22, Y+6	; 0x06
 a10:	ce 01       	movw	r24, r28
 a12:	07 96       	adiw	r24, 0x07	; 7
 a14:	0e 94 71 04 	call	0x8e2	; 0x8e2 <itoxx>
 a18:	ce 01       	movw	r24, r28
 a1a:	07 96       	adiw	r24, 0x07	; 7
 a1c:	0e 94 5e 04 	call	0x8bc	; 0x8bc <uart_puts>
 a20:	81 ee       	ldi	r24, 0xE1	; 225
 a22:	90 e0       	ldi	r25, 0x00	; 0
 a24:	0e 94 67 04 	call	0x8ce	; 0x8ce <uart_puts_P>
 a28:	af cf       	rjmp	.-162    	; 0x988 <main+0x38>

00000a2a <memcpy_P>:
 a2a:	fb 01       	movw	r30, r22
 a2c:	dc 01       	movw	r26, r24
 a2e:	02 c0       	rjmp	.+4      	; 0xa34 <memcpy_P+0xa>
 a30:	05 90       	lpm	r0, Z+
 a32:	0d 92       	st	X+, r0
 a34:	41 50       	subi	r20, 0x01	; 1
 a36:	50 40       	sbci	r21, 0x00	; 0
 a38:	d8 f7       	brcc	.-10     	; 0xa30 <memcpy_P+0x6>
 a3a:	08 95       	ret

00000a3c <_exit>:
 a3c:	f8 94       	cli

00000a3e <__stop_program>:
 a3e:	ff cf       	rjmp	.-2      	; 0xa3e <__stop_program>
