
05_M32_DS18B20_PARASITE_OK.elf:     file format elf32-avr

Sections:
Idx Name          Size      VMA       LMA       File off  Algn
  0 .text         00001da0  00000000  00000000  00000094  2**1
                  CONTENTS, ALLOC, LOAD, READONLY, CODE
  1 .data         00000562  00800060  00001da0  00001e34  2**0
                  CONTENTS, ALLOC, LOAD, DATA
  2 .bss          00000033  008005c2  008005c2  00002396  2**0
                  ALLOC
  3 .stab         00000be8  00000000  00000000  00002398  2**2
                  CONTENTS, READONLY, DEBUGGING
  4 .stabstr      000001fb  00000000  00000000  00002f80  2**0
                  CONTENTS, READONLY, DEBUGGING
  5 .comment      0000002f  00000000  00000000  0000317b  2**0
                  CONTENTS, READONLY

Disassembly of section .text:

00000000 <__vectors>:
       0:	0c 94 2a 00 	jmp	0x54	; 0x54 <__ctors_end>
       4:	0c 94 4f 00 	jmp	0x9e	; 0x9e <__bad_interrupt>
       8:	0c 94 4f 00 	jmp	0x9e	; 0x9e <__bad_interrupt>
       c:	0c 94 4f 00 	jmp	0x9e	; 0x9e <__bad_interrupt>
      10:	0c 94 4f 00 	jmp	0x9e	; 0x9e <__bad_interrupt>
      14:	0c 94 4f 00 	jmp	0x9e	; 0x9e <__bad_interrupt>
      18:	0c 94 4f 00 	jmp	0x9e	; 0x9e <__bad_interrupt>
      1c:	0c 94 4f 00 	jmp	0x9e	; 0x9e <__bad_interrupt>
      20:	0c 94 4f 00 	jmp	0x9e	; 0x9e <__bad_interrupt>
      24:	0c 94 4f 00 	jmp	0x9e	; 0x9e <__bad_interrupt>
      28:	0c 94 4f 00 	jmp	0x9e	; 0x9e <__bad_interrupt>
      2c:	0c 94 4f 00 	jmp	0x9e	; 0x9e <__bad_interrupt>
      30:	0c 94 4f 00 	jmp	0x9e	; 0x9e <__bad_interrupt>
      34:	0c 94 76 00 	jmp	0xec	; 0xec <__vector_13>
      38:	0c 94 88 00 	jmp	0x110	; 0x110 <__vector_14>
      3c:	0c 94 4f 00 	jmp	0x9e	; 0x9e <__bad_interrupt>
      40:	0c 94 4f 00 	jmp	0x9e	; 0x9e <__bad_interrupt>
      44:	0c 94 4f 00 	jmp	0x9e	; 0x9e <__bad_interrupt>
      48:	0c 94 4f 00 	jmp	0x9e	; 0x9e <__bad_interrupt>
      4c:	0c 94 4f 00 	jmp	0x9e	; 0x9e <__bad_interrupt>
      50:	0c 94 4f 00 	jmp	0x9e	; 0x9e <__bad_interrupt>

00000054 <__ctors_end>:
      54:	11 24       	eor	r1, r1
      56:	1f be       	out	0x3f, r1	; 63
      58:	cf e5       	ldi	r28, 0x5F	; 95
      5a:	d8 e0       	ldi	r29, 0x08	; 8
      5c:	de bf       	out	0x3e, r29	; 62
      5e:	cd bf       	out	0x3d, r28	; 61

00000060 <init_mem>:
      60:	e5 ef       	ldi	r30, 0xF5	; 245
      62:	f5 e0       	ldi	r31, 0x05	; 5
      64:	8a ea       	ldi	r24, 0xAA	; 170
      66:	98 e0       	ldi	r25, 0x08	; 8
      68:	81 93       	st	Z+, r24
      6a:	ef 35       	cpi	r30, 0x5F	; 95
      6c:	f9 07       	cpc	r31, r25
      6e:	e1 f7       	brne	.-8      	; 0x68 <init_mem+0x8>

00000070 <__do_copy_data>:
      70:	15 e0       	ldi	r17, 0x05	; 5
      72:	a0 e6       	ldi	r26, 0x60	; 96
      74:	b0 e0       	ldi	r27, 0x00	; 0
      76:	e0 ea       	ldi	r30, 0xA0	; 160
      78:	fd e1       	ldi	r31, 0x1D	; 29
      7a:	02 c0       	rjmp	.+4      	; 0x80 <__do_copy_data+0x10>
      7c:	05 90       	lpm	r0, Z+
      7e:	0d 92       	st	X+, r0
      80:	a2 3c       	cpi	r26, 0xC2	; 194
      82:	b1 07       	cpc	r27, r17
      84:	d9 f7       	brne	.-10     	; 0x7c <__do_copy_data+0xc>

00000086 <__do_clear_bss>:
      86:	25 e0       	ldi	r18, 0x05	; 5
      88:	a2 ec       	ldi	r26, 0xC2	; 194
      8a:	b5 e0       	ldi	r27, 0x05	; 5
      8c:	01 c0       	rjmp	.+2      	; 0x90 <.do_clear_bss_start>

0000008e <.do_clear_bss_loop>:
      8e:	1d 92       	st	X+, r1

00000090 <.do_clear_bss_start>:
      90:	a5 3f       	cpi	r26, 0xF5	; 245
      92:	b2 07       	cpc	r27, r18
      94:	e1 f7       	brne	.-8      	; 0x8e <.do_clear_bss_loop>
      96:	0e 94 35 0a 	call	0x146a	; 0x146a <main>
      9a:	0c 94 ce 0e 	jmp	0x1d9c	; 0x1d9c <_exit>

0000009e <__bad_interrupt>:
      9e:	0c 94 00 00 	jmp	0	; 0x0 <__vectors>

000000a2 <UART_INIT>:
      a2:	10 bc       	out	0x20, r1	; 32
      a4:	89 e1       	ldi	r24, 0x19	; 25
      a6:	89 b9       	out	0x09, r24	; 9
      a8:	59 98       	cbi	0x0b, 1	; 11
      aa:	86 e8       	ldi	r24, 0x86	; 134
      ac:	80 bd       	out	0x20, r24	; 32
      ae:	88 e1       	ldi	r24, 0x18	; 24
      b0:	8a b9       	out	0x0a, r24	; 10
      b2:	08 95       	ret

000000b4 <UART_SENDB>:
      b4:	e0 e6       	ldi	r30, 0x60	; 96
      b6:	f0 e0       	ldi	r31, 0x00	; 0
      b8:	80 e0       	ldi	r24, 0x00	; 0
      ba:	90 e0       	ldi	r25, 0x00	; 0
      bc:	21 91       	ld	r18, Z+
      be:	21 11       	cpse	r18, r1
      c0:	09 c0       	rjmp	.+18     	; 0xd4 <UART_SENDB+0x20>
      c2:	fc 01       	movw	r30, r24
      c4:	e0 5a       	subi	r30, 0xA0	; 160
      c6:	ff 4f       	sbci	r31, 0xFF	; 255
      c8:	8d e0       	ldi	r24, 0x0D	; 13
      ca:	80 83       	st	Z, r24
      cc:	8a e0       	ldi	r24, 0x0A	; 10
      ce:	81 83       	std	Z+1, r24	; 0x01
      d0:	12 82       	std	Z+2, r1	; 0x02
      d2:	04 c0       	rjmp	.+8      	; 0xdc <UART_SENDB+0x28>
      d4:	01 96       	adiw	r24, 0x01	; 1
      d6:	8e 31       	cpi	r24, 0x1E	; 30
      d8:	91 05       	cpc	r25, r1
      da:	81 f7       	brne	.-32     	; 0xbc <UART_SENDB+0x8>
      dc:	5d 9b       	sbis	0x0b, 5	; 11
      de:	fe cf       	rjmp	.-4      	; 0xdc <UART_SENDB+0x28>
      e0:	10 92 c5 05 	sts	0x05C5, r1
      e4:	10 92 c4 05 	sts	0x05C4, r1
      e8:	55 9a       	sbi	0x0a, 5	; 10
      ea:	08 95       	ret

000000ec <__vector_13>:
      ec:	1f 92       	push	r1
      ee:	0f 92       	push	r0
      f0:	0f b6       	in	r0, 0x3f	; 63
      f2:	0f 92       	push	r0
      f4:	11 24       	eor	r1, r1
      f6:	8f 93       	push	r24
      f8:	8c b1       	in	r24, 0x0c	; 12
      fa:	80 93 c3 05 	sts	0x05C3, r24
      fe:	81 e0       	ldi	r24, 0x01	; 1
     100:	80 93 c2 05 	sts	0x05C2, r24
     104:	8f 91       	pop	r24
     106:	0f 90       	pop	r0
     108:	0f be       	out	0x3f, r0	; 63
     10a:	0f 90       	pop	r0
     10c:	1f 90       	pop	r1
     10e:	18 95       	reti

00000110 <__vector_14>:
     110:	1f 92       	push	r1
     112:	0f 92       	push	r0
     114:	0f b6       	in	r0, 0x3f	; 63
     116:	0f 92       	push	r0
     118:	11 24       	eor	r1, r1
     11a:	2f 93       	push	r18
     11c:	8f 93       	push	r24
     11e:	9f 93       	push	r25
     120:	ef 93       	push	r30
     122:	ff 93       	push	r31
     124:	e0 91 c4 05 	lds	r30, 0x05C4
     128:	f0 91 c5 05 	lds	r31, 0x05C5
     12c:	e0 5a       	subi	r30, 0xA0	; 160
     12e:	ff 4f       	sbci	r31, 0xFF	; 255
     130:	80 81       	ld	r24, Z
     132:	88 23       	and	r24, r24
     134:	79 f0       	breq	.+30     	; 0x154 <__vector_14+0x44>
     136:	80 91 c4 05 	lds	r24, 0x05C4
     13a:	90 91 c5 05 	lds	r25, 0x05C5
     13e:	fc 01       	movw	r30, r24
     140:	e0 5a       	subi	r30, 0xA0	; 160
     142:	ff 4f       	sbci	r31, 0xFF	; 255
     144:	20 81       	ld	r18, Z
     146:	2c b9       	out	0x0c, r18	; 12
     148:	01 96       	adiw	r24, 0x01	; 1
     14a:	90 93 c5 05 	sts	0x05C5, r25
     14e:	80 93 c4 05 	sts	0x05C4, r24
     152:	01 c0       	rjmp	.+2      	; 0x156 <__vector_14+0x46>
     154:	55 98       	cbi	0x0a, 5	; 10
     156:	ff 91       	pop	r31
     158:	ef 91       	pop	r30
     15a:	9f 91       	pop	r25
     15c:	8f 91       	pop	r24
     15e:	2f 91       	pop	r18
     160:	0f 90       	pop	r0
     162:	0f be       	out	0x3f, r0	; 63
     164:	0f 90       	pop	r0
     166:	1f 90       	pop	r1
     168:	18 95       	reti

0000016a <UART_SEND>:
     16a:	5d 9b       	sbis	0x0b, 5	; 11
     16c:	fe cf       	rjmp	.-4      	; 0x16a <UART_SEND>
     16e:	8c b9       	out	0x0c, r24	; 12
     170:	08 95       	ret

00000172 <UART_SENDSTR>:
     172:	cf 93       	push	r28
     174:	df 93       	push	r29
     176:	ec 01       	movw	r28, r24
     178:	02 c0       	rjmp	.+4      	; 0x17e <UART_SENDSTR+0xc>
     17a:	0e 94 b5 00 	call	0x16a	; 0x16a <UART_SEND>
     17e:	89 91       	ld	r24, Y+
     180:	81 11       	cpse	r24, r1
     182:	fb cf       	rjmp	.-10     	; 0x17a <UART_SENDSTR+0x8>
     184:	df 91       	pop	r29
     186:	cf 91       	pop	r28
     188:	08 95       	ret

0000018a <UART_SENDSTR_P>:
     18a:	cf 93       	push	r28
     18c:	df 93       	push	r29
     18e:	ec 01       	movw	r28, r24
     190:	02 c0       	rjmp	.+4      	; 0x196 <UART_SENDSTR_P+0xc>
     192:	0e 94 b5 00 	call	0x16a	; 0x16a <UART_SEND>
     196:	fe 01       	movw	r30, r28
     198:	21 96       	adiw	r28, 0x01	; 1
     19a:	84 91       	lpm	r24, Z
     19c:	81 11       	cpse	r24, r1
     19e:	f9 cf       	rjmp	.-14     	; 0x192 <UART_SENDSTR_P+0x8>
     1a0:	df 91       	pop	r29
     1a2:	cf 91       	pop	r28
     1a4:	08 95       	ret

000001a6 <uart_put_int>:
     1a6:	cf 93       	push	r28
     1a8:	df 93       	push	r29
     1aa:	cd b7       	in	r28, 0x3d	; 61
     1ac:	de b7       	in	r29, 0x3e	; 62
     1ae:	2a 97       	sbiw	r28, 0x0a	; 10
     1b0:	0f b6       	in	r0, 0x3f	; 63
     1b2:	f8 94       	cli
     1b4:	de bf       	out	0x3e, r29	; 62
     1b6:	0f be       	out	0x3f, r0	; 63
     1b8:	cd bf       	out	0x3d, r28	; 61
     1ba:	4a e0       	ldi	r20, 0x0A	; 10
     1bc:	50 e0       	ldi	r21, 0x00	; 0
     1be:	be 01       	movw	r22, r28
     1c0:	6f 5f       	subi	r22, 0xFF	; 255
     1c2:	7f 4f       	sbci	r23, 0xFF	; 255
     1c4:	0e 94 69 0e 	call	0x1cd2	; 0x1cd2 <itoa>
     1c8:	ce 01       	movw	r24, r28
     1ca:	01 96       	adiw	r24, 0x01	; 1
     1cc:	0e 94 b9 00 	call	0x172	; 0x172 <UART_SENDSTR>
     1d0:	2a 96       	adiw	r28, 0x0a	; 10
     1d2:	0f b6       	in	r0, 0x3f	; 63
     1d4:	f8 94       	cli
     1d6:	de bf       	out	0x3e, r29	; 62
     1d8:	0f be       	out	0x3f, r0	; 63
     1da:	cd bf       	out	0x3d, r28	; 61
     1dc:	df 91       	pop	r29
     1de:	cf 91       	pop	r28
     1e0:	08 95       	ret

000001e2 <uart_put_longint>:
     1e2:	cf 93       	push	r28
     1e4:	df 93       	push	r29
     1e6:	cd b7       	in	r28, 0x3d	; 61
     1e8:	de b7       	in	r29, 0x3e	; 62
     1ea:	2f 97       	sbiw	r28, 0x0f	; 15
     1ec:	0f b6       	in	r0, 0x3f	; 63
     1ee:	f8 94       	cli
     1f0:	de bf       	out	0x3e, r29	; 62
     1f2:	0f be       	out	0x3f, r0	; 63
     1f4:	cd bf       	out	0x3d, r28	; 61
     1f6:	2a e0       	ldi	r18, 0x0A	; 10
     1f8:	30 e0       	ldi	r19, 0x00	; 0
     1fa:	ae 01       	movw	r20, r28
     1fc:	4f 5f       	subi	r20, 0xFF	; 255
     1fe:	5f 4f       	sbci	r21, 0xFF	; 255
     200:	0e 94 8a 0e 	call	0x1d14	; 0x1d14 <ltoa>
     204:	0e 94 b9 00 	call	0x172	; 0x172 <UART_SENDSTR>
     208:	2f 96       	adiw	r28, 0x0f	; 15
     20a:	0f b6       	in	r0, 0x3f	; 63
     20c:	f8 94       	cli
     20e:	de bf       	out	0x3e, r29	; 62
     210:	0f be       	out	0x3f, r0	; 63
     212:	cd bf       	out	0x3d, r28	; 61
     214:	df 91       	pop	r29
     216:	cf 91       	pop	r28
     218:	08 95       	ret

0000021a <uart_puthex_nibble>:
     21a:	8f 70       	andi	r24, 0x0F	; 15
     21c:	8a 30       	cpi	r24, 0x0A	; 10
     21e:	10 f0       	brcs	.+4      	; 0x224 <uart_puthex_nibble+0xa>
     220:	89 5c       	subi	r24, 0xC9	; 201
     222:	01 c0       	rjmp	.+2      	; 0x226 <uart_puthex_nibble+0xc>
     224:	80 5d       	subi	r24, 0xD0	; 208
     226:	0c 94 b5 00 	jmp	0x16a	; 0x16a <UART_SEND>

0000022a <uart_puthex_byte>:
     22a:	cf 93       	push	r28
     22c:	c8 2f       	mov	r28, r24
     22e:	82 95       	swap	r24
     230:	8f 70       	andi	r24, 0x0F	; 15
     232:	0e 94 0d 01 	call	0x21a	; 0x21a <uart_puthex_nibble>
     236:	8c 2f       	mov	r24, r28
     238:	cf 91       	pop	r28
     23a:	0c 94 0d 01 	jmp	0x21a	; 0x21a <uart_puthex_nibble>

0000023e <HD44780_NR>:
     23e:	fb 01       	movw	r30, r22
     240:	93 e0       	ldi	r25, 0x03	; 3
     242:	89 9f       	mul	r24, r25
     244:	e0 0d       	add	r30, r0
     246:	f1 1d       	adc	r31, r1
     248:	11 24       	eor	r1, r1
     24a:	80 81       	ld	r24, Z
     24c:	80 93 7e 00 	sts	0x007E, r24
     250:	81 81       	ldd	r24, Z+1	; 0x01
     252:	80 93 7f 00 	sts	0x007F, r24
     256:	82 81       	ldd	r24, Z+2	; 0x02
     258:	80 93 80 00 	sts	0x0080, r24
     25c:	08 95       	ret

0000025e <_HD44780_PULSE>:
     25e:	a0 e8       	ldi	r26, 0x80	; 128
     260:	b0 e0       	ldi	r27, 0x00	; 0
     262:	2c 91       	ld	r18, X
     264:	e2 2f       	mov	r30, r18
     266:	e6 95       	lsr	r30
     268:	e6 95       	lsr	r30
     26a:	e6 95       	lsr	r30
     26c:	f0 e0       	ldi	r31, 0x00	; 0
     26e:	ee 0f       	add	r30, r30
     270:	ff 1f       	adc	r31, r31
     272:	ef 57       	subi	r30, 0x7F	; 127
     274:	ff 4f       	sbci	r31, 0xFF	; 255
     276:	01 90       	ld	r0, Z+
     278:	f0 81       	ld	r31, Z
     27a:	e0 2d       	mov	r30, r0
     27c:	40 81       	ld	r20, Z
     27e:	27 70       	andi	r18, 0x07	; 7
     280:	81 e0       	ldi	r24, 0x01	; 1
     282:	90 e0       	ldi	r25, 0x00	; 0
     284:	bc 01       	movw	r22, r24
     286:	02 c0       	rjmp	.+4      	; 0x28c <_HD44780_PULSE+0x2e>
     288:	66 0f       	add	r22, r22
     28a:	77 1f       	adc	r23, r23
     28c:	2a 95       	dec	r18
     28e:	e2 f7       	brpl	.-8      	; 0x288 <_HD44780_PULSE+0x2a>
     290:	46 2b       	or	r20, r22
     292:	40 83       	st	Z, r20
     294:	7d e0       	ldi	r23, 0x0D	; 13
     296:	7a 95       	dec	r23
     298:	f1 f7       	brne	.-4      	; 0x296 <_HD44780_PULSE+0x38>
     29a:	00 00       	nop
     29c:	2c 91       	ld	r18, X
     29e:	e2 2f       	mov	r30, r18
     2a0:	e6 95       	lsr	r30
     2a2:	e6 95       	lsr	r30
     2a4:	e6 95       	lsr	r30
     2a6:	f0 e0       	ldi	r31, 0x00	; 0
     2a8:	ee 0f       	add	r30, r30
     2aa:	ff 1f       	adc	r31, r31
     2ac:	ef 57       	subi	r30, 0x7F	; 127
     2ae:	ff 4f       	sbci	r31, 0xFF	; 255
     2b0:	01 90       	ld	r0, Z+
     2b2:	f0 81       	ld	r31, Z
     2b4:	e0 2d       	mov	r30, r0
     2b6:	30 81       	ld	r19, Z
     2b8:	27 70       	andi	r18, 0x07	; 7
     2ba:	02 2e       	mov	r0, r18
     2bc:	01 c0       	rjmp	.+2      	; 0x2c0 <_HD44780_PULSE+0x62>
     2be:	88 0f       	add	r24, r24
     2c0:	0a 94       	dec	r0
     2c2:	ea f7       	brpl	.-6      	; 0x2be <_HD44780_PULSE+0x60>
     2c4:	80 95       	com	r24
     2c6:	83 23       	and	r24, r19
     2c8:	80 83       	st	Z, r24
     2ca:	08 95       	ret

000002cc <_HD44780_W4BIT>:
     2cc:	e0 91 85 00 	lds	r30, 0x0085
     2d0:	f0 91 86 00 	lds	r31, 0x0086
     2d4:	90 81       	ld	r25, Z
     2d6:	80 ff       	sbrs	r24, 0
     2d8:	02 c0       	rjmp	.+4      	; 0x2de <_HD44780_W4BIT+0x12>
     2da:	94 60       	ori	r25, 0x04	; 4
     2dc:	01 c0       	rjmp	.+2      	; 0x2e0 <_HD44780_W4BIT+0x14>
     2de:	9b 7f       	andi	r25, 0xFB	; 251
     2e0:	90 83       	st	Z, r25
     2e2:	e0 91 85 00 	lds	r30, 0x0085
     2e6:	f0 91 86 00 	lds	r31, 0x0086
     2ea:	90 81       	ld	r25, Z
     2ec:	81 ff       	sbrs	r24, 1
     2ee:	02 c0       	rjmp	.+4      	; 0x2f4 <_HD44780_W4BIT+0x28>
     2f0:	98 60       	ori	r25, 0x08	; 8
     2f2:	01 c0       	rjmp	.+2      	; 0x2f6 <_HD44780_W4BIT+0x2a>
     2f4:	97 7f       	andi	r25, 0xF7	; 247
     2f6:	90 83       	st	Z, r25
     2f8:	e0 91 85 00 	lds	r30, 0x0085
     2fc:	f0 91 86 00 	lds	r31, 0x0086
     300:	90 81       	ld	r25, Z
     302:	82 ff       	sbrs	r24, 2
     304:	02 c0       	rjmp	.+4      	; 0x30a <_HD44780_W4BIT+0x3e>
     306:	90 61       	ori	r25, 0x10	; 16
     308:	01 c0       	rjmp	.+2      	; 0x30c <_HD44780_W4BIT+0x40>
     30a:	9f 7e       	andi	r25, 0xEF	; 239
     30c:	90 83       	st	Z, r25
     30e:	e0 91 85 00 	lds	r30, 0x0085
     312:	f0 91 86 00 	lds	r31, 0x0086
     316:	83 ff       	sbrs	r24, 3
     318:	03 c0       	rjmp	.+6      	; 0x320 <_HD44780_W4BIT+0x54>
     31a:	80 81       	ld	r24, Z
     31c:	80 62       	ori	r24, 0x20	; 32
     31e:	02 c0       	rjmp	.+4      	; 0x324 <_HD44780_W4BIT+0x58>
     320:	80 81       	ld	r24, Z
     322:	8f 7d       	andi	r24, 0xDF	; 223
     324:	80 83       	st	Z, r24
     326:	08 95       	ret

00000328 <_HD44780_W8BIT>:
     328:	ef 92       	push	r14
     32a:	ff 92       	push	r15
     32c:	0f 93       	push	r16
     32e:	1f 93       	push	r17
     330:	cf 93       	push	r28
     332:	df 93       	push	r29
     334:	1f 92       	push	r1
     336:	cd b7       	in	r28, 0x3d	; 61
     338:	de b7       	in	r29, 0x3e	; 62
     33a:	e0 91 85 00 	lds	r30, 0x0085
     33e:	f0 91 86 00 	lds	r31, 0x0086
     342:	90 81       	ld	r25, Z
     344:	88 23       	and	r24, r24
     346:	11 f0       	breq	.+4      	; 0x34c <_HD44780_W8BIT+0x24>
     348:	90 64       	ori	r25, 0x40	; 64
     34a:	01 c0       	rjmp	.+2      	; 0x34e <_HD44780_W8BIT+0x26>
     34c:	9f 7b       	andi	r25, 0xBF	; 191
     34e:	90 83       	st	Z, r25
     350:	80 91 80 00 	lds	r24, 0x0080
     354:	e8 2e       	mov	r14, r24
     356:	e6 94       	lsr	r14
     358:	e6 94       	lsr	r14
     35a:	e6 94       	lsr	r14
     35c:	f1 2c       	mov	r15, r1
     35e:	ee 0c       	add	r14, r14
     360:	ff 1c       	adc	r15, r15
     362:	21 e8       	ldi	r18, 0x81	; 129
     364:	30 e0       	ldi	r19, 0x00	; 0
     366:	e2 0e       	add	r14, r18
     368:	f3 1e       	adc	r15, r19
     36a:	d7 01       	movw	r26, r14
     36c:	ed 91       	ld	r30, X+
     36e:	fc 91       	ld	r31, X
     370:	90 81       	ld	r25, Z
     372:	87 70       	andi	r24, 0x07	; 7
     374:	01 e0       	ldi	r16, 0x01	; 1
     376:	10 e0       	ldi	r17, 0x00	; 0
     378:	01 c0       	rjmp	.+2      	; 0x37c <_HD44780_W8BIT+0x54>
     37a:	00 0f       	add	r16, r16
     37c:	8a 95       	dec	r24
     37e:	ea f7       	brpl	.-6      	; 0x37a <_HD44780_W8BIT+0x52>
     380:	10 2f       	mov	r17, r16
     382:	90 2b       	or	r25, r16
     384:	90 83       	st	Z, r25
     386:	86 2f       	mov	r24, r22
     388:	82 95       	swap	r24
     38a:	8f 70       	andi	r24, 0x0F	; 15
     38c:	69 83       	std	Y+1, r22	; 0x01
     38e:	0e 94 66 01 	call	0x2cc	; 0x2cc <_HD44780_W4BIT>
     392:	d7 01       	movw	r26, r14
     394:	ed 91       	ld	r30, X+
     396:	fc 91       	ld	r31, X
     398:	11 97       	sbiw	r26, 0x01	; 1
     39a:	90 81       	ld	r25, Z
     39c:	00 95       	com	r16
     39e:	90 23       	and	r25, r16
     3a0:	90 83       	st	Z, r25
     3a2:	ed 91       	ld	r30, X+
     3a4:	fc 91       	ld	r31, X
     3a6:	90 81       	ld	r25, Z
     3a8:	91 2b       	or	r25, r17
     3aa:	90 83       	st	Z, r25
     3ac:	69 81       	ldd	r22, Y+1	; 0x01
     3ae:	86 2f       	mov	r24, r22
     3b0:	0e 94 66 01 	call	0x2cc	; 0x2cc <_HD44780_W4BIT>
     3b4:	d7 01       	movw	r26, r14
     3b6:	ed 91       	ld	r30, X+
     3b8:	fc 91       	ld	r31, X
     3ba:	80 81       	ld	r24, Z
     3bc:	80 23       	and	r24, r16
     3be:	80 83       	st	Z, r24
     3c0:	ef ec       	ldi	r30, 0xCF	; 207
     3c2:	f7 e0       	ldi	r31, 0x07	; 7
     3c4:	31 97       	sbiw	r30, 0x01	; 1
     3c6:	f1 f7       	brne	.-4      	; 0x3c4 <_HD44780_W8BIT+0x9c>
     3c8:	00 c0       	rjmp	.+0      	; 0x3ca <_HD44780_W8BIT+0xa2>
     3ca:	00 00       	nop
     3cc:	0f 90       	pop	r0
     3ce:	df 91       	pop	r29
     3d0:	cf 91       	pop	r28
     3d2:	1f 91       	pop	r17
     3d4:	0f 91       	pop	r16
     3d6:	ff 90       	pop	r15
     3d8:	ef 90       	pop	r14
     3da:	08 95       	ret

000003dc <HD44780_INIT>:
     3dc:	0f 93       	push	r16
     3de:	1f 93       	push	r17
     3e0:	cf 93       	push	r28
     3e2:	df 93       	push	r29
     3e4:	e0 91 85 00 	lds	r30, 0x0085
     3e8:	f0 91 86 00 	lds	r31, 0x0086
     3ec:	82 91       	ld	r24, -Z
     3ee:	84 60       	ori	r24, 0x04	; 4
     3f0:	80 83       	st	Z, r24
     3f2:	e0 91 85 00 	lds	r30, 0x0085
     3f6:	f0 91 86 00 	lds	r31, 0x0086
     3fa:	82 91       	ld	r24, -Z
     3fc:	88 60       	ori	r24, 0x08	; 8
     3fe:	80 83       	st	Z, r24
     400:	e0 91 85 00 	lds	r30, 0x0085
     404:	f0 91 86 00 	lds	r31, 0x0086
     408:	82 91       	ld	r24, -Z
     40a:	80 61       	ori	r24, 0x10	; 16
     40c:	80 83       	st	Z, r24
     40e:	e0 91 85 00 	lds	r30, 0x0085
     412:	f0 91 86 00 	lds	r31, 0x0086
     416:	82 91       	ld	r24, -Z
     418:	80 62       	ori	r24, 0x20	; 32
     41a:	80 83       	st	Z, r24
     41c:	e0 91 85 00 	lds	r30, 0x0085
     420:	f0 91 86 00 	lds	r31, 0x0086
     424:	82 91       	ld	r24, -Z
     426:	80 64       	ori	r24, 0x40	; 64
     428:	80 83       	st	Z, r24
     42a:	20 91 80 00 	lds	r18, 0x0080
     42e:	e2 2f       	mov	r30, r18
     430:	e6 95       	lsr	r30
     432:	e6 95       	lsr	r30
     434:	e6 95       	lsr	r30
     436:	f0 e0       	ldi	r31, 0x00	; 0
     438:	ee 0f       	add	r30, r30
     43a:	ff 1f       	adc	r31, r31
     43c:	ef 57       	subi	r30, 0x7F	; 127
     43e:	ff 4f       	sbci	r31, 0xFF	; 255
     440:	01 90       	ld	r0, Z+
     442:	f0 81       	ld	r31, Z
     444:	e0 2d       	mov	r30, r0
     446:	42 91       	ld	r20, -Z
     448:	27 70       	andi	r18, 0x07	; 7
     44a:	81 e0       	ldi	r24, 0x01	; 1
     44c:	90 e0       	ldi	r25, 0x00	; 0
     44e:	bc 01       	movw	r22, r24
     450:	02 c0       	rjmp	.+4      	; 0x456 <HD44780_INIT+0x7a>
     452:	66 0f       	add	r22, r22
     454:	77 1f       	adc	r23, r23
     456:	2a 95       	dec	r18
     458:	e2 f7       	brpl	.-8      	; 0x452 <HD44780_INIT+0x76>
     45a:	46 2b       	or	r20, r22
     45c:	40 83       	st	Z, r20
     45e:	ef e3       	ldi	r30, 0x3F	; 63
     460:	fc e9       	ldi	r31, 0x9C	; 156
     462:	31 97       	sbiw	r30, 0x01	; 1
     464:	f1 f7       	brne	.-4      	; 0x462 <HD44780_INIT+0x86>
     466:	00 c0       	rjmp	.+0      	; 0x468 <HD44780_INIT+0x8c>
     468:	00 00       	nop
     46a:	e0 91 85 00 	lds	r30, 0x0085
     46e:	f0 91 86 00 	lds	r31, 0x0086
     472:	20 81       	ld	r18, Z
     474:	2f 7b       	andi	r18, 0xBF	; 191
     476:	20 83       	st	Z, r18
     478:	20 91 80 00 	lds	r18, 0x0080
     47c:	e2 2f       	mov	r30, r18
     47e:	e6 95       	lsr	r30
     480:	e6 95       	lsr	r30
     482:	e6 95       	lsr	r30
     484:	f0 e0       	ldi	r31, 0x00	; 0
     486:	ee 0f       	add	r30, r30
     488:	ff 1f       	adc	r31, r31
     48a:	ef 57       	subi	r30, 0x7F	; 127
     48c:	ff 4f       	sbci	r31, 0xFF	; 255
     48e:	01 90       	ld	r0, Z+
     490:	f0 81       	ld	r31, Z
     492:	e0 2d       	mov	r30, r0
     494:	30 81       	ld	r19, Z
     496:	27 70       	andi	r18, 0x07	; 7
     498:	01 c0       	rjmp	.+2      	; 0x49c <HD44780_INIT+0xc0>
     49a:	88 0f       	add	r24, r24
     49c:	2a 95       	dec	r18
     49e:	ea f7       	brpl	.-6      	; 0x49a <HD44780_INIT+0xbe>
     4a0:	80 95       	com	r24
     4a2:	83 23       	and	r24, r19
     4a4:	80 83       	st	Z, r24
     4a6:	13 e0       	ldi	r17, 0x03	; 3
     4a8:	c1 e0       	ldi	r28, 0x01	; 1
     4aa:	d0 e0       	ldi	r29, 0x00	; 0
     4ac:	80 91 80 00 	lds	r24, 0x0080
     4b0:	e8 2f       	mov	r30, r24
     4b2:	e6 95       	lsr	r30
     4b4:	e6 95       	lsr	r30
     4b6:	e6 95       	lsr	r30
     4b8:	f0 e0       	ldi	r31, 0x00	; 0
     4ba:	ee 0f       	add	r30, r30
     4bc:	ff 1f       	adc	r31, r31
     4be:	ef 57       	subi	r30, 0x7F	; 127
     4c0:	ff 4f       	sbci	r31, 0xFF	; 255
     4c2:	01 90       	ld	r0, Z+
     4c4:	f0 81       	ld	r31, Z
     4c6:	e0 2d       	mov	r30, r0
     4c8:	20 81       	ld	r18, Z
     4ca:	87 70       	andi	r24, 0x07	; 7
     4cc:	ae 01       	movw	r20, r28
     4ce:	02 c0       	rjmp	.+4      	; 0x4d4 <HD44780_INIT+0xf8>
     4d0:	44 0f       	add	r20, r20
     4d2:	55 1f       	adc	r21, r21
     4d4:	8a 95       	dec	r24
     4d6:	e2 f7       	brpl	.-8      	; 0x4d0 <HD44780_INIT+0xf4>
     4d8:	24 2b       	or	r18, r20
     4da:	20 83       	st	Z, r18
     4dc:	83 e0       	ldi	r24, 0x03	; 3
     4de:	0e 94 66 01 	call	0x2cc	; 0x2cc <_HD44780_W4BIT>
     4e2:	80 91 80 00 	lds	r24, 0x0080
     4e6:	e8 2f       	mov	r30, r24
     4e8:	e6 95       	lsr	r30
     4ea:	e6 95       	lsr	r30
     4ec:	e6 95       	lsr	r30
     4ee:	f0 e0       	ldi	r31, 0x00	; 0
     4f0:	ee 0f       	add	r30, r30
     4f2:	ff 1f       	adc	r31, r31
     4f4:	ef 57       	subi	r30, 0x7F	; 127
     4f6:	ff 4f       	sbci	r31, 0xFF	; 255
     4f8:	01 90       	ld	r0, Z+
     4fa:	f0 81       	ld	r31, Z
     4fc:	e0 2d       	mov	r30, r0
     4fe:	20 81       	ld	r18, Z
     500:	87 70       	andi	r24, 0x07	; 7
     502:	be 01       	movw	r22, r28
     504:	02 c0       	rjmp	.+4      	; 0x50a <HD44780_INIT+0x12e>
     506:	66 0f       	add	r22, r22
     508:	77 1f       	adc	r23, r23
     50a:	8a 95       	dec	r24
     50c:	e2 f7       	brpl	.-8      	; 0x506 <HD44780_INIT+0x12a>
     50e:	cb 01       	movw	r24, r22
     510:	80 95       	com	r24
     512:	82 23       	and	r24, r18
     514:	80 83       	st	Z, r24
     516:	8f e0       	ldi	r24, 0x0F	; 15
     518:	97 e2       	ldi	r25, 0x27	; 39
     51a:	01 97       	sbiw	r24, 0x01	; 1
     51c:	f1 f7       	brne	.-4      	; 0x51a <HD44780_INIT+0x13e>
     51e:	00 c0       	rjmp	.+0      	; 0x520 <HD44780_INIT+0x144>
     520:	00 00       	nop
     522:	11 50       	subi	r17, 0x01	; 1
     524:	19 f6       	brne	.-122    	; 0x4ac <HD44780_INIT+0xd0>
     526:	00 91 80 00 	lds	r16, 0x0080
     52a:	c0 2f       	mov	r28, r16
     52c:	c6 95       	lsr	r28
     52e:	c6 95       	lsr	r28
     530:	c6 95       	lsr	r28
     532:	d0 e0       	ldi	r29, 0x00	; 0
     534:	cc 0f       	add	r28, r28
     536:	dd 1f       	adc	r29, r29
     538:	cf 57       	subi	r28, 0x7F	; 127
     53a:	df 4f       	sbci	r29, 0xFF	; 255
     53c:	e8 81       	ld	r30, Y
     53e:	f9 81       	ldd	r31, Y+1	; 0x01
     540:	20 81       	ld	r18, Z
     542:	07 70       	andi	r16, 0x07	; 7
     544:	81 e0       	ldi	r24, 0x01	; 1
     546:	90 e0       	ldi	r25, 0x00	; 0
     548:	ac 01       	movw	r20, r24
     54a:	02 c0       	rjmp	.+4      	; 0x550 <HD44780_INIT+0x174>
     54c:	44 0f       	add	r20, r20
     54e:	55 1f       	adc	r21, r21
     550:	0a 95       	dec	r16
     552:	e2 f7       	brpl	.-8      	; 0x54c <HD44780_INIT+0x170>
     554:	8a 01       	movw	r16, r20
     556:	24 2b       	or	r18, r20
     558:	20 83       	st	Z, r18
     55a:	82 e0       	ldi	r24, 0x02	; 2
     55c:	0e 94 66 01 	call	0x2cc	; 0x2cc <_HD44780_W4BIT>
     560:	e8 81       	ld	r30, Y
     562:	f9 81       	ldd	r31, Y+1	; 0x01
     564:	80 81       	ld	r24, Z
     566:	00 95       	com	r16
     568:	08 23       	and	r16, r24
     56a:	00 83       	st	Z, r16
     56c:	8f ec       	ldi	r24, 0xCF	; 207
     56e:	97 e0       	ldi	r25, 0x07	; 7
     570:	01 97       	sbiw	r24, 0x01	; 1
     572:	f1 f7       	brne	.-4      	; 0x570 <HD44780_INIT+0x194>
     574:	00 c0       	rjmp	.+0      	; 0x576 <HD44780_INIT+0x19a>
     576:	00 00       	nop
     578:	68 e2       	ldi	r22, 0x28	; 40
     57a:	80 e0       	ldi	r24, 0x00	; 0
     57c:	0e 94 94 01 	call	0x328	; 0x328 <_HD44780_W8BIT>
     580:	68 e0       	ldi	r22, 0x08	; 8
     582:	80 e0       	ldi	r24, 0x00	; 0
     584:	0e 94 94 01 	call	0x328	; 0x328 <_HD44780_W8BIT>
     588:	66 e0       	ldi	r22, 0x06	; 6
     58a:	80 e0       	ldi	r24, 0x00	; 0
     58c:	0e 94 94 01 	call	0x328	; 0x328 <_HD44780_W8BIT>
     590:	6c e0       	ldi	r22, 0x0C	; 12
     592:	80 e0       	ldi	r24, 0x00	; 0
     594:	0e 94 94 01 	call	0x328	; 0x328 <_HD44780_W8BIT>
     598:	61 e0       	ldi	r22, 0x01	; 1
     59a:	80 e0       	ldi	r24, 0x00	; 0
     59c:	df 91       	pop	r29
     59e:	cf 91       	pop	r28
     5a0:	1f 91       	pop	r17
     5a2:	0f 91       	pop	r16
     5a4:	0c 94 94 01 	jmp	0x328	; 0x328 <_HD44780_W8BIT>

000005a8 <HD44780_START>:
     5a8:	0f 93       	push	r16
     5aa:	1f 93       	push	r17
     5ac:	cf 93       	push	r28
     5ae:	df 93       	push	r29
     5b0:	ec 01       	movw	r28, r24
     5b2:	06 2f       	mov	r16, r22
     5b4:	10 e0       	ldi	r17, 0x00	; 0
     5b6:	0d c0       	rjmp	.+26     	; 0x5d2 <HD44780_START+0x2a>
     5b8:	be 01       	movw	r22, r28
     5ba:	81 2f       	mov	r24, r17
     5bc:	0e 94 1f 01 	call	0x23e	; 0x23e <HD44780_NR>
     5c0:	0e 94 ee 01 	call	0x3dc	; 0x3dc <HD44780_INIT>
     5c4:	8f e3       	ldi	r24, 0x3F	; 63
     5c6:	9c e9       	ldi	r25, 0x9C	; 156
     5c8:	01 97       	sbiw	r24, 0x01	; 1
     5ca:	f1 f7       	brne	.-4      	; 0x5c8 <HD44780_START+0x20>
     5cc:	00 c0       	rjmp	.+0      	; 0x5ce <HD44780_START+0x26>
     5ce:	00 00       	nop
     5d0:	1f 5f       	subi	r17, 0xFF	; 255
     5d2:	10 13       	cpse	r17, r16
     5d4:	f1 cf       	rjmp	.-30     	; 0x5b8 <HD44780_START+0x10>
     5d6:	df 91       	pop	r29
     5d8:	cf 91       	pop	r28
     5da:	1f 91       	pop	r17
     5dc:	0f 91       	pop	r16
     5de:	08 95       	ret

000005e0 <HD44780_CUSTOMCHAR>:
     5e0:	0f 93       	push	r16
     5e2:	1f 93       	push	r17
     5e4:	cf 93       	push	r28
     5e6:	df 93       	push	r29
     5e8:	08 2f       	mov	r16, r24
     5ea:	00 0f       	add	r16, r16
     5ec:	00 0f       	add	r16, r16
     5ee:	00 0f       	add	r16, r16
     5f0:	00 5c       	subi	r16, 0xC0	; 192
     5f2:	eb 01       	movw	r28, r22
     5f4:	10 e0       	ldi	r17, 0x00	; 0
     5f6:	61 2f       	mov	r22, r17
     5f8:	60 0f       	add	r22, r16
     5fa:	80 e0       	ldi	r24, 0x00	; 0
     5fc:	0e 94 94 01 	call	0x328	; 0x328 <_HD44780_W8BIT>
     600:	69 91       	ld	r22, Y+
     602:	81 e0       	ldi	r24, 0x01	; 1
     604:	0e 94 94 01 	call	0x328	; 0x328 <_HD44780_W8BIT>
     608:	1f 5f       	subi	r17, 0xFF	; 255
     60a:	18 30       	cpi	r17, 0x08	; 8
     60c:	a1 f7       	brne	.-24     	; 0x5f6 <HD44780_CUSTOMCHAR+0x16>
     60e:	60 e8       	ldi	r22, 0x80	; 128
     610:	80 e0       	ldi	r24, 0x00	; 0
     612:	df 91       	pop	r29
     614:	cf 91       	pop	r28
     616:	1f 91       	pop	r17
     618:	0f 91       	pop	r16
     61a:	0c 94 94 01 	jmp	0x328	; 0x328 <_HD44780_W8BIT>

0000061e <HD44780_CUSTOMCHARSET>:
     61e:	1f 93       	push	r17
     620:	cf 93       	push	r28
     622:	df 93       	push	r29
     624:	ec 01       	movw	r28, r24
     626:	10 e4       	ldi	r17, 0x40	; 64
     628:	61 2f       	mov	r22, r17
     62a:	80 e0       	ldi	r24, 0x00	; 0
     62c:	0e 94 94 01 	call	0x328	; 0x328 <_HD44780_W8BIT>
     630:	fe 01       	movw	r30, r28
     632:	64 91       	lpm	r22, Z
     634:	81 e0       	ldi	r24, 0x01	; 1
     636:	0e 94 94 01 	call	0x328	; 0x328 <_HD44780_W8BIT>
     63a:	1f 5f       	subi	r17, 0xFF	; 255
     63c:	21 96       	adiw	r28, 0x01	; 1
     63e:	10 38       	cpi	r17, 0x80	; 128
     640:	99 f7       	brne	.-26     	; 0x628 <HD44780_CUSTOMCHARSET+0xa>
     642:	60 e8       	ldi	r22, 0x80	; 128
     644:	80 e0       	ldi	r24, 0x00	; 0
     646:	df 91       	pop	r29
     648:	cf 91       	pop	r28
     64a:	1f 91       	pop	r17
     64c:	0c 94 94 01 	jmp	0x328	; 0x328 <_HD44780_W8BIT>

00000650 <HD44780_CLR>:
     650:	61 e0       	ldi	r22, 0x01	; 1
     652:	80 e0       	ldi	r24, 0x00	; 0
     654:	0e 94 94 01 	call	0x328	; 0x328 <_HD44780_W8BIT>
     658:	8f ec       	ldi	r24, 0xCF	; 207
     65a:	97 e0       	ldi	r25, 0x07	; 7
     65c:	01 97       	sbiw	r24, 0x01	; 1
     65e:	f1 f7       	brne	.-4      	; 0x65c <HD44780_CLR+0xc>
     660:	00 c0       	rjmp	.+0      	; 0x662 <HD44780_CLR+0x12>
     662:	00 00       	nop
     664:	08 95       	ret

00000666 <HD44780_HOME>:
     666:	62 e0       	ldi	r22, 0x02	; 2
     668:	80 e0       	ldi	r24, 0x00	; 0
     66a:	0c 94 94 01 	jmp	0x328	; 0x328 <_HD44780_W8BIT>

0000066e <HD44780_CHAR>:
     66e:	68 2f       	mov	r22, r24
     670:	81 e0       	ldi	r24, 0x01	; 1
     672:	0c 94 94 01 	jmp	0x328	; 0x328 <_HD44780_W8BIT>

00000676 <HD44780_TEXT>:
     676:	cf 93       	push	r28
     678:	df 93       	push	r29
     67a:	ec 01       	movw	r28, r24
     67c:	02 c0       	rjmp	.+4      	; 0x682 <HD44780_TEXT+0xc>
     67e:	0e 94 37 03 	call	0x66e	; 0x66e <HD44780_CHAR>
     682:	89 91       	ld	r24, Y+
     684:	81 11       	cpse	r24, r1
     686:	fb cf       	rjmp	.-10     	; 0x67e <HD44780_TEXT+0x8>
     688:	df 91       	pop	r29
     68a:	cf 91       	pop	r28
     68c:	08 95       	ret

0000068e <HD44780_XY>:
     68e:	e8 2f       	mov	r30, r24
     690:	86 2f       	mov	r24, r22
     692:	99 27       	eor	r25, r25
     694:	87 fd       	sbrc	r24, 7
     696:	90 95       	com	r25
     698:	60 91 7f 00 	lds	r22, 0x007F
     69c:	70 e0       	ldi	r23, 0x00	; 0
     69e:	0e 94 f7 0d 	call	0x1bee	; 0x1bee <__divmodhi4>
     6a2:	98 2f       	mov	r25, r24
     6a4:	81 30       	cpi	r24, 0x01	; 1
     6a6:	11 f4       	brne	.+4      	; 0x6ac <HD44780_XY+0x1e>
     6a8:	30 e4       	ldi	r19, 0x40	; 64
     6aa:	01 c0       	rjmp	.+2      	; 0x6ae <HD44780_XY+0x20>
     6ac:	30 e0       	ldi	r19, 0x00	; 0
     6ae:	21 e0       	ldi	r18, 0x01	; 1
     6b0:	93 30       	cpi	r25, 0x03	; 3
     6b2:	09 f0       	breq	.+2      	; 0x6b6 <HD44780_XY+0x28>
     6b4:	20 e0       	ldi	r18, 0x00	; 0
     6b6:	40 91 7e 00 	lds	r20, 0x007E
     6ba:	40 31       	cpi	r20, 0x10	; 16
     6bc:	11 f4       	brne	.+4      	; 0x6c2 <HD44780_XY+0x34>
     6be:	50 e5       	ldi	r21, 0x50	; 80
     6c0:	01 c0       	rjmp	.+2      	; 0x6c4 <HD44780_XY+0x36>
     6c2:	54 e5       	ldi	r21, 0x54	; 84
     6c4:	52 9f       	mul	r21, r18
     6c6:	50 2d       	mov	r21, r0
     6c8:	11 24       	eor	r1, r1
     6ca:	21 e0       	ldi	r18, 0x01	; 1
     6cc:	92 30       	cpi	r25, 0x02	; 2
     6ce:	09 f0       	breq	.+2      	; 0x6d2 <HD44780_XY+0x44>
     6d0:	20 e0       	ldi	r18, 0x00	; 0
     6d2:	40 31       	cpi	r20, 0x10	; 16
     6d4:	11 f4       	brne	.+4      	; 0x6da <HD44780_XY+0x4c>
     6d6:	90 e1       	ldi	r25, 0x10	; 16
     6d8:	01 c0       	rjmp	.+2      	; 0x6dc <HD44780_XY+0x4e>
     6da:	94 e1       	ldi	r25, 0x14	; 20
     6dc:	6e 2f       	mov	r22, r30
     6de:	60 58       	subi	r22, 0x80	; 128
     6e0:	63 0f       	add	r22, r19
     6e2:	65 0f       	add	r22, r21
     6e4:	92 9f       	mul	r25, r18
     6e6:	60 0d       	add	r22, r0
     6e8:	11 24       	eor	r1, r1
     6ea:	80 e0       	ldi	r24, 0x00	; 0
     6ec:	0c 94 94 01 	jmp	0x328	; 0x328 <_HD44780_W8BIT>

000006f0 <get_mem_unused>:
     6f0:	e5 ef       	ldi	r30, 0xF5	; 245
     6f2:	f5 e0       	ldi	r31, 0x05	; 5
     6f4:	20 e0       	ldi	r18, 0x00	; 0
     6f6:	30 e0       	ldi	r19, 0x00	; 0
     6f8:	81 91       	ld	r24, Z+
     6fa:	8a 3a       	cpi	r24, 0xAA	; 170
     6fc:	31 f4       	brne	.+12     	; 0x70a <get_mem_unused+0x1a>
     6fe:	2f 5f       	subi	r18, 0xFF	; 255
     700:	3f 4f       	sbci	r19, 0xFF	; 255
     702:	e0 36       	cpi	r30, 0x60	; 96
     704:	88 e0       	ldi	r24, 0x08	; 8
     706:	f8 07       	cpc	r31, r24
     708:	b8 f3       	brcs	.-18     	; 0x6f8 <get_mem_unused+0x8>
     70a:	c9 01       	movw	r24, r18
     70c:	08 95       	ret

0000070e <crc8>:
     70e:	fc 01       	movw	r30, r24
     710:	68 0f       	add	r22, r24
     712:	79 1f       	adc	r23, r25
     714:	80 e0       	ldi	r24, 0x00	; 0
     716:	48 e1       	ldi	r20, 0x18	; 24
     718:	0f c0       	rjmp	.+30     	; 0x738 <crc8+0x2a>
     71a:	21 91       	ld	r18, Z+
     71c:	98 e0       	ldi	r25, 0x08	; 8
     71e:	32 2f       	mov	r19, r18
     720:	38 27       	eor	r19, r24
     722:	53 2f       	mov	r21, r19
     724:	51 70       	andi	r21, 0x01	; 1
     726:	30 fd       	sbrc	r19, 0
     728:	84 27       	eor	r24, r20
     72a:	86 95       	lsr	r24
     72c:	51 30       	cpi	r21, 0x01	; 1
     72e:	09 f4       	brne	.+2      	; 0x732 <crc8+0x24>
     730:	80 68       	ori	r24, 0x80	; 128
     732:	26 95       	lsr	r18
     734:	91 50       	subi	r25, 0x01	; 1
     736:	99 f7       	brne	.-26     	; 0x71e <crc8+0x10>
     738:	e6 17       	cp	r30, r22
     73a:	f7 07       	cpc	r31, r23
     73c:	71 f7       	brne	.-36     	; 0x71a <crc8+0xc>
     73e:	08 95       	ret

00000740 <DS18X20_raw_to_decicelsius>:
     740:	fb 01       	movw	r30, r22
     742:	31 81       	ldd	r19, Z+1	; 0x01
     744:	20 e0       	ldi	r18, 0x00	; 0
     746:	90 81       	ld	r25, Z
     748:	29 2b       	or	r18, r25
     74a:	80 31       	cpi	r24, 0x10	; 16
     74c:	71 f4       	brne	.+28     	; 0x76a <DS18X20_raw_to_decicelsius+0x2a>
     74e:	a9 01       	movw	r20, r18
     750:	4e 7f       	andi	r20, 0xFE	; 254
     752:	63 e0       	ldi	r22, 0x03	; 3
     754:	44 0f       	add	r20, r20
     756:	55 1f       	adc	r21, r21
     758:	6a 95       	dec	r22
     75a:	e1 f7       	brne	.-8      	; 0x754 <DS18X20_raw_to_decicelsius+0x14>
     75c:	96 81       	ldd	r25, Z+6	; 0x06
     75e:	2c e0       	ldi	r18, 0x0C	; 12
     760:	30 e0       	ldi	r19, 0x00	; 0
     762:	29 1b       	sub	r18, r25
     764:	31 09       	sbc	r19, r1
     766:	24 0f       	add	r18, r20
     768:	35 1f       	adc	r19, r21
     76a:	37 ff       	sbrs	r19, 7
     76c:	05 c0       	rjmp	.+10     	; 0x778 <DS18X20_raw_to_decicelsius+0x38>
     76e:	31 95       	neg	r19
     770:	21 95       	neg	r18
     772:	31 09       	sbc	r19, r1
     774:	a1 e0       	ldi	r26, 0x01	; 1
     776:	01 c0       	rjmp	.+2      	; 0x77a <DS18X20_raw_to_decicelsius+0x3a>
     778:	a0 e0       	ldi	r26, 0x00	; 0
     77a:	88 32       	cpi	r24, 0x28	; 40
     77c:	11 f0       	breq	.+4      	; 0x782 <DS18X20_raw_to_decicelsius+0x42>
     77e:	82 32       	cpi	r24, 0x22	; 34
     780:	69 f4       	brne	.+26     	; 0x79c <DS18X20_raw_to_decicelsius+0x5c>
     782:	84 81       	ldd	r24, Z+4	; 0x04
     784:	80 76       	andi	r24, 0x60	; 96
     786:	80 32       	cpi	r24, 0x20	; 32
     788:	31 f0       	breq	.+12     	; 0x796 <DS18X20_raw_to_decicelsius+0x56>
     78a:	80 34       	cpi	r24, 0x40	; 64
     78c:	31 f0       	breq	.+12     	; 0x79a <DS18X20_raw_to_decicelsius+0x5a>
     78e:	81 11       	cpse	r24, r1
     790:	05 c0       	rjmp	.+10     	; 0x79c <DS18X20_raw_to_decicelsius+0x5c>
     792:	28 7f       	andi	r18, 0xF8	; 248
     794:	03 c0       	rjmp	.+6      	; 0x79c <DS18X20_raw_to_decicelsius+0x5c>
     796:	2c 7f       	andi	r18, 0xFC	; 252
     798:	01 c0       	rjmp	.+2      	; 0x79c <DS18X20_raw_to_decicelsius+0x5c>
     79a:	2e 7f       	andi	r18, 0xFE	; 254
     79c:	c9 01       	movw	r24, r18
     79e:	44 e0       	ldi	r20, 0x04	; 4
     7a0:	96 95       	lsr	r25
     7a2:	87 95       	ror	r24
     7a4:	4a 95       	dec	r20
     7a6:	e1 f7       	brne	.-8      	; 0x7a0 <DS18X20_raw_to_decicelsius+0x60>
     7a8:	6a e0       	ldi	r22, 0x0A	; 10
     7aa:	68 9f       	mul	r22, r24
     7ac:	a0 01       	movw	r20, r0
     7ae:	69 9f       	mul	r22, r25
     7b0:	50 0d       	add	r21, r0
     7b2:	11 24       	eor	r1, r1
     7b4:	2f 70       	andi	r18, 0x0F	; 15
     7b6:	33 27       	eor	r19, r19
     7b8:	60 e8       	ldi	r22, 0x80	; 128
     7ba:	72 e0       	ldi	r23, 0x02	; 2
     7bc:	26 9f       	mul	r18, r22
     7be:	c0 01       	movw	r24, r0
     7c0:	27 9f       	mul	r18, r23
     7c2:	90 0d       	add	r25, r0
     7c4:	36 9f       	mul	r19, r22
     7c6:	90 0d       	add	r25, r0
     7c8:	11 24       	eor	r1, r1
     7ca:	a1 11       	cpse	r26, r1
     7cc:	01 c0       	rjmp	.+2      	; 0x7d0 <DS18X20_raw_to_decicelsius+0x90>
     7ce:	9e 5f       	subi	r25, 0xFE	; 254
     7d0:	9c 01       	movw	r18, r24
     7d2:	23 2f       	mov	r18, r19
     7d4:	33 27       	eor	r19, r19
     7d6:	26 95       	lsr	r18
     7d8:	26 95       	lsr	r18
     7da:	24 0f       	add	r18, r20
     7dc:	35 1f       	adc	r19, r21
     7de:	aa 23       	and	r26, r26
     7e0:	19 f0       	breq	.+6      	; 0x7e8 <DS18X20_raw_to_decicelsius+0xa8>
     7e2:	31 95       	neg	r19
     7e4:	21 95       	neg	r18
     7e6:	31 09       	sbc	r19, r1
     7e8:	c9 01       	movw	r24, r18
     7ea:	8a 5d       	subi	r24, 0xDA	; 218
     7ec:	9d 4f       	sbci	r25, 0xFD	; 253
     7ee:	89 30       	cpi	r24, 0x09	; 9
     7f0:	97 40       	sbci	r25, 0x07	; 7
     7f2:	10 f0       	brcs	.+4      	; 0x7f8 <DS18X20_raw_to_decicelsius+0xb8>
     7f4:	20 ed       	ldi	r18, 0xD0	; 208
     7f6:	37 e0       	ldi	r19, 0x07	; 7
     7f8:	c9 01       	movw	r24, r18
     7fa:	08 95       	ret

000007fc <DS18X20_raw_to_maxres>:
     7fc:	0f 93       	push	r16
     7fe:	1f 93       	push	r17
     800:	cf 93       	push	r28
     802:	fb 01       	movw	r30, r22
     804:	51 81       	ldd	r21, Z+1	; 0x01
     806:	40 e0       	ldi	r20, 0x00	; 0
     808:	90 81       	ld	r25, Z
     80a:	49 2b       	or	r20, r25
     80c:	80 31       	cpi	r24, 0x10	; 16
     80e:	71 f4       	brne	.+28     	; 0x82c <DS18X20_raw_to_maxres+0x30>
     810:	9a 01       	movw	r18, r20
     812:	2e 7f       	andi	r18, 0xFE	; 254
     814:	a3 e0       	ldi	r26, 0x03	; 3
     816:	22 0f       	add	r18, r18
     818:	33 1f       	adc	r19, r19
     81a:	aa 95       	dec	r26
     81c:	e1 f7       	brne	.-8      	; 0x816 <DS18X20_raw_to_maxres+0x1a>
     81e:	96 81       	ldd	r25, Z+6	; 0x06
     820:	4c e0       	ldi	r20, 0x0C	; 12
     822:	50 e0       	ldi	r21, 0x00	; 0
     824:	49 1b       	sub	r20, r25
     826:	51 09       	sbc	r21, r1
     828:	42 0f       	add	r20, r18
     82a:	53 1f       	adc	r21, r19
     82c:	57 ff       	sbrs	r21, 7
     82e:	05 c0       	rjmp	.+10     	; 0x83a <DS18X20_raw_to_maxres+0x3e>
     830:	51 95       	neg	r21
     832:	41 95       	neg	r20
     834:	51 09       	sbc	r21, r1
     836:	c1 e0       	ldi	r28, 0x01	; 1
     838:	01 c0       	rjmp	.+2      	; 0x83c <DS18X20_raw_to_maxres+0x40>
     83a:	c0 e0       	ldi	r28, 0x00	; 0
     83c:	88 32       	cpi	r24, 0x28	; 40
     83e:	11 f0       	breq	.+4      	; 0x844 <DS18X20_raw_to_maxres+0x48>
     840:	82 32       	cpi	r24, 0x22	; 34
     842:	69 f4       	brne	.+26     	; 0x85e <DS18X20_raw_to_maxres+0x62>
     844:	84 81       	ldd	r24, Z+4	; 0x04
     846:	80 76       	andi	r24, 0x60	; 96
     848:	80 32       	cpi	r24, 0x20	; 32
     84a:	31 f0       	breq	.+12     	; 0x858 <DS18X20_raw_to_maxres+0x5c>
     84c:	80 34       	cpi	r24, 0x40	; 64
     84e:	31 f0       	breq	.+12     	; 0x85c <DS18X20_raw_to_maxres+0x60>
     850:	81 11       	cpse	r24, r1
     852:	05 c0       	rjmp	.+10     	; 0x85e <DS18X20_raw_to_maxres+0x62>
     854:	48 7f       	andi	r20, 0xF8	; 248
     856:	03 c0       	rjmp	.+6      	; 0x85e <DS18X20_raw_to_maxres+0x62>
     858:	4c 7f       	andi	r20, 0xFC	; 252
     85a:	01 c0       	rjmp	.+2      	; 0x85e <DS18X20_raw_to_maxres+0x62>
     85c:	4e 7f       	andi	r20, 0xFE	; 254
     85e:	9a 01       	movw	r18, r20
     860:	74 e0       	ldi	r23, 0x04	; 4
     862:	36 95       	lsr	r19
     864:	27 95       	ror	r18
     866:	7a 95       	dec	r23
     868:	e1 f7       	brne	.-8      	; 0x862 <__stack+0x3>
     86a:	a0 e1       	ldi	r26, 0x10	; 16
     86c:	b7 e2       	ldi	r27, 0x27	; 39
     86e:	0e 94 27 0e 	call	0x1c4e	; 0x1c4e <__umulhisi3>
     872:	8b 01       	movw	r16, r22
     874:	9c 01       	movw	r18, r24
     876:	4f 70       	andi	r20, 0x0F	; 15
     878:	55 27       	eor	r21, r21
     87a:	61 e7       	ldi	r22, 0x71	; 113
     87c:	72 e0       	ldi	r23, 0x02	; 2
     87e:	46 9f       	mul	r20, r22
     880:	c0 01       	movw	r24, r0
     882:	47 9f       	mul	r20, r23
     884:	90 0d       	add	r25, r0
     886:	56 9f       	mul	r21, r22
     888:	90 0d       	add	r25, r0
     88a:	11 24       	eor	r1, r1
     88c:	08 0f       	add	r16, r24
     88e:	19 1f       	adc	r17, r25
     890:	21 1d       	adc	r18, r1
     892:	31 1d       	adc	r19, r1
     894:	cc 23       	and	r28, r28
     896:	39 f0       	breq	.+14     	; 0x8a6 <__stack+0x47>
     898:	30 95       	com	r19
     89a:	20 95       	com	r18
     89c:	10 95       	com	r17
     89e:	01 95       	neg	r16
     8a0:	1f 4f       	sbci	r17, 0xFF	; 255
     8a2:	2f 4f       	sbci	r18, 0xFF	; 255
     8a4:	3f 4f       	sbci	r19, 0xFF	; 255
     8a6:	b8 01       	movw	r22, r16
     8a8:	c9 01       	movw	r24, r18
     8aa:	cf 91       	pop	r28
     8ac:	1f 91       	pop	r17
     8ae:	0f 91       	pop	r16
     8b0:	08 95       	ret

000008b2 <read_scratchpad>:
     8b2:	ff 92       	push	r15
     8b4:	0f 93       	push	r16
     8b6:	1f 93       	push	r17
     8b8:	cf 93       	push	r28
     8ba:	df 93       	push	r29
     8bc:	16 2f       	mov	r17, r22
     8be:	07 2f       	mov	r16, r23
     8c0:	f4 2e       	mov	r15, r20
     8c2:	bc 01       	movw	r22, r24
     8c4:	8e eb       	ldi	r24, 0xBE	; 190
     8c6:	0e 94 f1 0d 	call	0x1be2	; 0x1be2 <ow_command>
     8ca:	c1 2f       	mov	r28, r17
     8cc:	d0 2f       	mov	r29, r16
     8ce:	03 c0       	rjmp	.+6      	; 0x8d6 <read_scratchpad+0x24>
     8d0:	0e 94 a2 0d 	call	0x1b44	; 0x1b44 <ow_byte_rd>
     8d4:	89 93       	st	Y+, r24
     8d6:	8c 2f       	mov	r24, r28
     8d8:	81 1b       	sub	r24, r17
     8da:	8f 15       	cp	r24, r15
     8dc:	c8 f3       	brcs	.-14     	; 0x8d0 <read_scratchpad+0x1e>
     8de:	69 e0       	ldi	r22, 0x09	; 9
     8e0:	70 e0       	ldi	r23, 0x00	; 0
     8e2:	81 2f       	mov	r24, r17
     8e4:	90 2f       	mov	r25, r16
     8e6:	0e 94 87 03 	call	0x70e	; 0x70e <crc8>
     8ea:	88 23       	and	r24, r24
     8ec:	11 f0       	breq	.+4      	; 0x8f2 <read_scratchpad+0x40>
     8ee:	83 e0       	ldi	r24, 0x03	; 3
     8f0:	01 c0       	rjmp	.+2      	; 0x8f4 <read_scratchpad+0x42>
     8f2:	80 e0       	ldi	r24, 0x00	; 0
     8f4:	df 91       	pop	r29
     8f6:	cf 91       	pop	r28
     8f8:	1f 91       	pop	r17
     8fa:	0f 91       	pop	r16
     8fc:	ff 90       	pop	r15
     8fe:	08 95       	ret

00000900 <DS18X20_show_id_uart>:
     900:	af 92       	push	r10
     902:	bf 92       	push	r11
     904:	cf 92       	push	r12
     906:	df 92       	push	r13
     908:	ef 92       	push	r14
     90a:	ff 92       	push	r15
     90c:	0f 93       	push	r16
     90e:	1f 93       	push	r17
     910:	cf 93       	push	r28
     912:	df 93       	push	r29
     914:	8c 01       	movw	r16, r24
     916:	7b 01       	movw	r14, r22
     918:	6c 01       	movw	r12, r24
     91a:	c0 e0       	ldi	r28, 0x00	; 0
     91c:	d0 e0       	ldi	r29, 0x00	; 0
     91e:	5b 01       	movw	r10, r22
     920:	81 e0       	ldi	r24, 0x01	; 1
     922:	a8 1a       	sub	r10, r24
     924:	b1 08       	sbc	r11, r1
     926:	35 c0       	rjmp	.+106    	; 0x992 <DS18X20_show_id_uart+0x92>
     928:	20 97       	sbiw	r28, 0x00	; 0
     92a:	19 f4       	brne	.+6      	; 0x932 <DS18X20_show_id_uart+0x32>
     92c:	89 e8       	ldi	r24, 0x89	; 137
     92e:	90 e0       	ldi	r25, 0x00	; 0
     930:	0c c0       	rjmp	.+24     	; 0x94a <DS18X20_show_id_uart+0x4a>
     932:	ca 15       	cp	r28, r10
     934:	db 05       	cpc	r29, r11
     936:	21 f4       	brne	.+8      	; 0x940 <DS18X20_show_id_uart+0x40>
     938:	8d e8       	ldi	r24, 0x8D	; 141
     93a:	90 e0       	ldi	r25, 0x00	; 0
     93c:	0e 94 b9 00 	call	0x172	; 0x172 <UART_SENDSTR>
     940:	c1 30       	cpi	r28, 0x01	; 1
     942:	d1 05       	cpc	r29, r1
     944:	21 f4       	brne	.+8      	; 0x94e <DS18X20_show_id_uart+0x4e>
     946:	82 e9       	ldi	r24, 0x92	; 146
     948:	90 e0       	ldi	r25, 0x00	; 0
     94a:	0e 94 b9 00 	call	0x172	; 0x172 <UART_SENDSTR>
     94e:	f6 01       	movw	r30, r12
     950:	81 91       	ld	r24, Z+
     952:	6f 01       	movw	r12, r30
     954:	90 e0       	ldi	r25, 0x00	; 0
     956:	0e 94 15 01 	call	0x22a	; 0x22a <uart_puthex_byte>
     95a:	81 e2       	ldi	r24, 0x21	; 33
     95c:	93 e0       	ldi	r25, 0x03	; 3
     95e:	0e 94 b9 00 	call	0x172	; 0x172 <UART_SENDSTR>
     962:	20 97       	sbiw	r28, 0x00	; 0
     964:	a9 f4       	brne	.+42     	; 0x990 <DS18X20_show_id_uart+0x90>
     966:	f8 01       	movw	r30, r16
     968:	80 81       	ld	r24, Z
     96a:	80 31       	cpi	r24, 0x10	; 16
     96c:	19 f4       	brne	.+6      	; 0x974 <DS18X20_show_id_uart+0x74>
     96e:	87 e9       	ldi	r24, 0x97	; 151
     970:	90 e0       	ldi	r25, 0x00	; 0
     972:	0c c0       	rjmp	.+24     	; 0x98c <DS18X20_show_id_uart+0x8c>
     974:	88 32       	cpi	r24, 0x28	; 40
     976:	19 f4       	brne	.+6      	; 0x97e <DS18X20_show_id_uart+0x7e>
     978:	8d e9       	ldi	r24, 0x9D	; 157
     97a:	90 e0       	ldi	r25, 0x00	; 0
     97c:	07 c0       	rjmp	.+14     	; 0x98c <DS18X20_show_id_uart+0x8c>
     97e:	82 32       	cpi	r24, 0x22	; 34
     980:	19 f4       	brne	.+6      	; 0x988 <DS18X20_show_id_uart+0x88>
     982:	83 ea       	ldi	r24, 0xA3	; 163
     984:	90 e0       	ldi	r25, 0x00	; 0
     986:	02 c0       	rjmp	.+4      	; 0x98c <DS18X20_show_id_uart+0x8c>
     988:	88 ea       	ldi	r24, 0xA8	; 168
     98a:	90 e0       	ldi	r25, 0x00	; 0
     98c:	0e 94 b9 00 	call	0x172	; 0x172 <UART_SENDSTR>
     990:	21 96       	adiw	r28, 0x01	; 1
     992:	ce 15       	cp	r28, r14
     994:	df 05       	cpc	r29, r15
     996:	41 f6       	brne	.-112    	; 0x928 <DS18X20_show_id_uart+0x28>
     998:	68 e0       	ldi	r22, 0x08	; 8
     99a:	70 e0       	ldi	r23, 0x00	; 0
     99c:	c8 01       	movw	r24, r16
     99e:	0e 94 87 03 	call	0x70e	; 0x70e <crc8>
     9a2:	88 23       	and	r24, r24
     9a4:	19 f0       	breq	.+6      	; 0x9ac <DS18X20_show_id_uart+0xac>
     9a6:	8e ea       	ldi	r24, 0xAE	; 174
     9a8:	90 e0       	ldi	r25, 0x00	; 0
     9aa:	02 c0       	rjmp	.+4      	; 0x9b0 <DS18X20_show_id_uart+0xb0>
     9ac:	89 eb       	ldi	r24, 0xB9	; 185
     9ae:	90 e0       	ldi	r25, 0x00	; 0
     9b0:	df 91       	pop	r29
     9b2:	cf 91       	pop	r28
     9b4:	1f 91       	pop	r17
     9b6:	0f 91       	pop	r16
     9b8:	ff 90       	pop	r15
     9ba:	ef 90       	pop	r14
     9bc:	df 90       	pop	r13
     9be:	cf 90       	pop	r12
     9c0:	bf 90       	pop	r11
     9c2:	af 90       	pop	r10
     9c4:	0c 94 b9 00 	jmp	0x172	; 0x172 <UART_SENDSTR>

000009c8 <DS18X20_find_sensor>:
     9c8:	0f 93       	push	r16
     9ca:	1f 93       	push	r17
     9cc:	cf 93       	push	r28
     9ce:	df 93       	push	r29
     9d0:	ec 01       	movw	r28, r24
     9d2:	8b 01       	movw	r16, r22
     9d4:	b8 01       	movw	r22, r16
     9d6:	88 81       	ld	r24, Y
     9d8:	0e 94 a5 0d 	call	0x1b4a	; 0x1b4a <ow_rom_search>
     9dc:	88 83       	st	Y, r24
     9de:	81 50       	subi	r24, 0x01	; 1
     9e0:	8d 3f       	cpi	r24, 0xFD	; 253
     9e2:	48 f4       	brcc	.+18     	; 0x9f6 <DS18X20_find_sensor+0x2e>
     9e4:	f8 01       	movw	r30, r16
     9e6:	80 81       	ld	r24, Z
     9e8:	88 32       	cpi	r24, 0x28	; 40
     9ea:	39 f0       	breq	.+14     	; 0x9fa <DS18X20_find_sensor+0x32>
     9ec:	80 31       	cpi	r24, 0x10	; 16
     9ee:	29 f0       	breq	.+10     	; 0x9fa <DS18X20_find_sensor+0x32>
     9f0:	82 32       	cpi	r24, 0x22	; 34
     9f2:	81 f7       	brne	.-32     	; 0x9d4 <DS18X20_find_sensor+0xc>
     9f4:	02 c0       	rjmp	.+4      	; 0x9fa <DS18X20_find_sensor+0x32>
     9f6:	81 e0       	ldi	r24, 0x01	; 1
     9f8:	01 c0       	rjmp	.+2      	; 0x9fc <DS18X20_find_sensor+0x34>
     9fa:	80 e0       	ldi	r24, 0x00	; 0
     9fc:	df 91       	pop	r29
     9fe:	cf 91       	pop	r28
     a00:	1f 91       	pop	r17
     a02:	0f 91       	pop	r16
     a04:	08 95       	ret

00000a06 <DS18X20_get_power_status>:
     a06:	cf 93       	push	r28
     a08:	df 93       	push	r29
     a0a:	ec 01       	movw	r28, r24
     a0c:	0e 94 ed 0c 	call	0x19da	; 0x19da <ow_reset>
     a10:	be 01       	movw	r22, r28
     a12:	84 eb       	ldi	r24, 0xB4	; 180
     a14:	0e 94 f1 0d 	call	0x1be2	; 0x1be2 <ow_command>
     a18:	81 e0       	ldi	r24, 0x01	; 1
     a1a:	0e 94 47 0d 	call	0x1a8e	; 0x1a8e <ow_bit_io>
     a1e:	c8 2f       	mov	r28, r24
     a20:	0e 94 ed 0c 	call	0x19da	; 0x19da <ow_reset>
     a24:	81 e0       	ldi	r24, 0x01	; 1
     a26:	c1 11       	cpse	r28, r1
     a28:	01 c0       	rjmp	.+2      	; 0xa2c <DS18X20_get_power_status+0x26>
     a2a:	80 e0       	ldi	r24, 0x00	; 0
     a2c:	df 91       	pop	r29
     a2e:	cf 91       	pop	r28
     a30:	08 95       	ret

00000a32 <DS18X20_start_meas>:
     a32:	1f 93       	push	r17
     a34:	cf 93       	push	r28
     a36:	df 93       	push	r29
     a38:	00 d0       	rcall	.+0      	; 0xa3a <DS18X20_start_meas+0x8>
     a3a:	cd b7       	in	r28, 0x3d	; 61
     a3c:	de b7       	in	r29, 0x3e	; 62
     a3e:	18 2f       	mov	r17, r24
     a40:	69 83       	std	Y+1, r22	; 0x01
     a42:	7a 83       	std	Y+2, r23	; 0x02
     a44:	0e 94 ed 0c 	call	0x19da	; 0x19da <ow_reset>
     a48:	0e 94 70 0c 	call	0x18e0	; 0x18e0 <ow_input_pin_state>
     a4c:	69 81       	ldd	r22, Y+1	; 0x01
     a4e:	7a 81       	ldd	r23, Y+2	; 0x02
     a50:	88 23       	and	r24, r24
     a52:	51 f0       	breq	.+20     	; 0xa68 <DS18X20_start_meas+0x36>
     a54:	84 e4       	ldi	r24, 0x44	; 68
     a56:	11 30       	cpi	r17, 0x01	; 1
     a58:	19 f0       	breq	.+6      	; 0xa60 <DS18X20_start_meas+0x2e>
     a5a:	0e 94 f4 0d 	call	0x1be8	; 0x1be8 <ow_command_with_parasite_enable>
     a5e:	02 c0       	rjmp	.+4      	; 0xa64 <DS18X20_start_meas+0x32>
     a60:	0e 94 f1 0d 	call	0x1be2	; 0x1be2 <ow_command>
     a64:	80 e0       	ldi	r24, 0x00	; 0
     a66:	05 c0       	rjmp	.+10     	; 0xa72 <DS18X20_start_meas+0x40>
     a68:	84 ec       	ldi	r24, 0xC4	; 196
     a6a:	90 e0       	ldi	r25, 0x00	; 0
     a6c:	0e 94 b9 00 	call	0x172	; 0x172 <UART_SENDSTR>
     a70:	82 e0       	ldi	r24, 0x02	; 2
     a72:	0f 90       	pop	r0
     a74:	0f 90       	pop	r0
     a76:	df 91       	pop	r29
     a78:	cf 91       	pop	r28
     a7a:	1f 91       	pop	r17
     a7c:	08 95       	ret

00000a7e <DS18X20_conversion_in_progress>:
     a7e:	81 e0       	ldi	r24, 0x01	; 1
     a80:	0e 94 47 0d 	call	0x1a8e	; 0x1a8e <ow_bit_io>
     a84:	91 e0       	ldi	r25, 0x01	; 1
     a86:	81 11       	cpse	r24, r1
     a88:	90 e0       	ldi	r25, 0x00	; 0
     a8a:	89 2f       	mov	r24, r25
     a8c:	08 95       	ret

00000a8e <DS18X20_format_from_decicelsius>:
     a8e:	bf 92       	push	r11
     a90:	cf 92       	push	r12
     a92:	df 92       	push	r13
     a94:	ef 92       	push	r14
     a96:	ff 92       	push	r15
     a98:	0f 93       	push	r16
     a9a:	1f 93       	push	r17
     a9c:	cf 93       	push	r28
     a9e:	df 93       	push	r29
     aa0:	cd b7       	in	r28, 0x3d	; 61
     aa2:	de b7       	in	r29, 0x3e	; 62
     aa4:	27 97       	sbiw	r28, 0x07	; 7
     aa6:	0f b6       	in	r0, 0x3f	; 63
     aa8:	f8 94       	cli
     aaa:	de bf       	out	0x3e, r29	; 62
     aac:	0f be       	out	0x3f, r0	; 63
     aae:	cd bf       	out	0x3d, r28	; 61
     ab0:	7b 01       	movw	r14, r22
     ab2:	47 30       	cpi	r20, 0x07	; 7
     ab4:	08 f4       	brcc	.+2      	; 0xab8 <DS18X20_format_from_decicelsius+0x2a>
     ab6:	5b c0       	rjmp	.+182    	; 0xb6e <DS18X20_format_from_decicelsius+0xe0>
     ab8:	89 31       	cpi	r24, 0x19	; 25
     aba:	2c ef       	ldi	r18, 0xFC	; 252
     abc:	92 07       	cpc	r25, r18
     abe:	0c f4       	brge	.+2      	; 0xac2 <DS18X20_format_from_decicelsius+0x34>
     ac0:	56 c0       	rjmp	.+172    	; 0xb6e <DS18X20_format_from_decicelsius+0xe0>
     ac2:	80 31       	cpi	r24, 0x10	; 16
     ac4:	e7 e2       	ldi	r30, 0x27	; 39
     ac6:	9e 07       	cpc	r25, r30
     ac8:	0c f0       	brlt	.+2      	; 0xacc <DS18X20_format_from_decicelsius+0x3e>
     aca:	51 c0       	rjmp	.+162    	; 0xb6e <DS18X20_format_from_decicelsius+0xe0>
     acc:	97 ff       	sbrs	r25, 7
     ace:	06 c0       	rjmp	.+12     	; 0xadc <DS18X20_format_from_decicelsius+0x4e>
     ad0:	91 95       	neg	r25
     ad2:	81 95       	neg	r24
     ad4:	91 09       	sbc	r25, r1
     ad6:	bb 24       	eor	r11, r11
     ad8:	b3 94       	inc	r11
     ada:	01 c0       	rjmp	.+2      	; 0xade <DS18X20_format_from_decicelsius+0x50>
     adc:	b1 2c       	mov	r11, r1
     ade:	cc 24       	eor	r12, r12
     ae0:	c3 94       	inc	r12
     ae2:	d1 2c       	mov	r13, r1
     ae4:	cc 0e       	add	r12, r28
     ae6:	dd 1e       	adc	r13, r29
     ae8:	86 01       	movw	r16, r12
     aea:	6a e0       	ldi	r22, 0x0A	; 10
     aec:	70 e0       	ldi	r23, 0x00	; 0
     aee:	0e 94 f7 0d 	call	0x1bee	; 0x1bee <__divmodhi4>
     af2:	80 5d       	subi	r24, 0xD0	; 208
     af4:	f8 01       	movw	r30, r16
     af6:	81 93       	st	Z+, r24
     af8:	8f 01       	movw	r16, r30
     afa:	2e 2f       	mov	r18, r30
     afc:	2c 19       	sub	r18, r12
     afe:	86 2f       	mov	r24, r22
     b00:	97 2f       	mov	r25, r23
     b02:	18 16       	cp	r1, r24
     b04:	19 06       	cpc	r1, r25
     b06:	8c f3       	brlt	.-30     	; 0xaea <DS18X20_format_from_decicelsius+0x5c>
     b08:	82 2f       	mov	r24, r18
     b0a:	99 27       	eor	r25, r25
     b0c:	87 fd       	sbrc	r24, 7
     b0e:	90 95       	com	r25
     b10:	e1 e0       	ldi	r30, 0x01	; 1
     b12:	f0 e0       	ldi	r31, 0x00	; 0
     b14:	ec 0f       	add	r30, r28
     b16:	fd 1f       	adc	r31, r29
     b18:	e8 0f       	add	r30, r24
     b1a:	f9 1f       	adc	r31, r25
     b1c:	bb 20       	and	r11, r11
     b1e:	29 f0       	breq	.+10     	; 0xb2a <DS18X20_format_from_decicelsius+0x9c>
     b20:	3d e2       	ldi	r19, 0x2D	; 45
     b22:	30 83       	st	Z, r19
     b24:	90 e0       	ldi	r25, 0x00	; 0
     b26:	3e e2       	ldi	r19, 0x2E	; 46
     b28:	03 c0       	rjmp	.+6      	; 0xb30 <DS18X20_format_from_decicelsius+0xa2>
     b2a:	3b e2       	ldi	r19, 0x2B	; 43
     b2c:	fa cf       	rjmp	.-12     	; 0xb22 <DS18X20_format_from_decicelsius+0x94>
     b2e:	98 2f       	mov	r25, r24
     b30:	f7 01       	movw	r30, r14
     b32:	e9 0f       	add	r30, r25
     b34:	f1 1d       	adc	r31, r1
     b36:	a1 e0       	ldi	r26, 0x01	; 1
     b38:	b0 e0       	ldi	r27, 0x00	; 0
     b3a:	ac 0f       	add	r26, r28
     b3c:	bd 1f       	adc	r27, r29
     b3e:	a2 0f       	add	r26, r18
     b40:	b1 1d       	adc	r27, r1
     b42:	27 fd       	sbrc	r18, 7
     b44:	ba 95       	dec	r27
     b46:	8c 91       	ld	r24, X
     b48:	80 83       	st	Z, r24
     b4a:	89 2f       	mov	r24, r25
     b4c:	8f 5f       	subi	r24, 0xFF	; 255
     b4e:	21 50       	subi	r18, 0x01	; 1
     b50:	31 f4       	brne	.+12     	; 0xb5e <DS18X20_format_from_decicelsius+0xd0>
     b52:	f7 01       	movw	r30, r14
     b54:	e8 0f       	add	r30, r24
     b56:	f1 1d       	adc	r31, r1
     b58:	30 83       	st	Z, r19
     b5a:	8f 5f       	subi	r24, 0xFF	; 255
     b5c:	e8 cf       	rjmp	.-48     	; 0xb2e <DS18X20_format_from_decicelsius+0xa0>
     b5e:	27 ff       	sbrs	r18, 7
     b60:	e6 cf       	rjmp	.-52     	; 0xb2e <DS18X20_format_from_decicelsius+0xa0>
     b62:	f7 01       	movw	r30, r14
     b64:	e8 0f       	add	r30, r24
     b66:	f1 1d       	adc	r31, r1
     b68:	10 82       	st	Z, r1
     b6a:	80 e0       	ldi	r24, 0x00	; 0
     b6c:	01 c0       	rjmp	.+2      	; 0xb70 <DS18X20_format_from_decicelsius+0xe2>
     b6e:	81 e0       	ldi	r24, 0x01	; 1
     b70:	27 96       	adiw	r28, 0x07	; 7
     b72:	0f b6       	in	r0, 0x3f	; 63
     b74:	f8 94       	cli
     b76:	de bf       	out	0x3e, r29	; 62
     b78:	0f be       	out	0x3f, r0	; 63
     b7a:	cd bf       	out	0x3d, r28	; 61
     b7c:	df 91       	pop	r29
     b7e:	cf 91       	pop	r28
     b80:	1f 91       	pop	r17
     b82:	0f 91       	pop	r16
     b84:	ff 90       	pop	r15
     b86:	ef 90       	pop	r14
     b88:	df 90       	pop	r13
     b8a:	cf 90       	pop	r12
     b8c:	bf 90       	pop	r11
     b8e:	08 95       	ret

00000b90 <DS18X20_read_meas_all_verbose>:
     b90:	2f 92       	push	r2
     b92:	3f 92       	push	r3
     b94:	5f 92       	push	r5
     b96:	6f 92       	push	r6
     b98:	7f 92       	push	r7
     b9a:	8f 92       	push	r8
     b9c:	9f 92       	push	r9
     b9e:	af 92       	push	r10
     ba0:	bf 92       	push	r11
     ba2:	cf 92       	push	r12
     ba4:	df 92       	push	r13
     ba6:	ef 92       	push	r14
     ba8:	ff 92       	push	r15
     baa:	0f 93       	push	r16
     bac:	1f 93       	push	r17
     bae:	cf 93       	push	r28
     bb0:	df 93       	push	r29
     bb2:	cd b7       	in	r28, 0x3d	; 61
     bb4:	de b7       	in	r29, 0x3e	; 62
     bb6:	ac 97       	sbiw	r28, 0x2c	; 44
     bb8:	0f b6       	in	r0, 0x3f	; 63
     bba:	f8 94       	cli
     bbc:	de bf       	out	0x3e, r29	; 62
     bbe:	0f be       	out	0x3f, r0	; 63
     bc0:	cd bf       	out	0x3d, r28	; 61
     bc2:	55 24       	eor	r5, r5
     bc4:	5a 94       	dec	r5
     bc6:	7e 01       	movw	r14, r28
     bc8:	85 e2       	ldi	r24, 0x25	; 37
     bca:	e8 0e       	add	r14, r24
     bcc:	f1 1c       	adc	r15, r1
     bce:	61 e7       	ldi	r22, 0x71	; 113
     bd0:	26 2e       	mov	r2, r22
     bd2:	62 e0       	ldi	r22, 0x02	; 2
     bd4:	36 2e       	mov	r3, r22
     bd6:	8e 01       	movw	r16, r28
     bd8:	0f 5f       	subi	r16, 0xFF	; 255
     bda:	1f 4f       	sbci	r17, 0xFF	; 255
     bdc:	b7 01       	movw	r22, r14
     bde:	85 2d       	mov	r24, r5
     be0:	0e 94 a5 0d 	call	0x1b4a	; 0x1b4a <ow_rom_search>
     be4:	58 2e       	mov	r5, r24
     be6:	ef ef       	ldi	r30, 0xFF	; 255
     be8:	8e 13       	cpse	r24, r30
     bea:	06 c0       	rjmp	.+12     	; 0xbf8 <DS18X20_read_meas_all_verbose+0x68>
     bec:	88 ee       	ldi	r24, 0xE8	; 232
     bee:	90 e0       	ldi	r25, 0x00	; 0
     bf0:	0e 94 b9 00 	call	0x172	; 0x172 <UART_SENDSTR>
     bf4:	8f ef       	ldi	r24, 0xFF	; 255
     bf6:	43 c1       	rjmp	.+646    	; 0xe7e <DS18X20_read_meas_all_verbose+0x2ee>
     bf8:	fe ef       	ldi	r31, 0xFE	; 254
     bfa:	8f 13       	cpse	r24, r31
     bfc:	06 c0       	rjmp	.+12     	; 0xc0a <DS18X20_read_meas_all_verbose+0x7a>
     bfe:	89 ef       	ldi	r24, 0xF9	; 249
     c00:	90 e0       	ldi	r25, 0x00	; 0
     c02:	0e 94 b9 00 	call	0x172	; 0x172 <UART_SENDSTR>
     c06:	8e ef       	ldi	r24, 0xFE	; 254
     c08:	3a c1       	rjmp	.+628    	; 0xe7e <DS18X20_read_meas_all_verbose+0x2ee>
     c0a:	68 e0       	ldi	r22, 0x08	; 8
     c0c:	70 e0       	ldi	r23, 0x00	; 0
     c0e:	c7 01       	movw	r24, r14
     c10:	0e 94 80 04 	call	0x900	; 0x900 <DS18X20_show_id_uart>
     c14:	8d a1       	ldd	r24, Y+37	; 0x25
     c16:	88 32       	cpi	r24, 0x28	; 40
     c18:	29 f0       	breq	.+10     	; 0xc24 <DS18X20_read_meas_all_verbose+0x94>
     c1a:	80 31       	cpi	r24, 0x10	; 16
     c1c:	19 f0       	breq	.+6      	; 0xc24 <DS18X20_read_meas_all_verbose+0x94>
     c1e:	82 32       	cpi	r24, 0x22	; 34
     c20:	09 f0       	breq	.+2      	; 0xc24 <DS18X20_read_meas_all_verbose+0x94>
     c22:	26 c1       	rjmp	.+588    	; 0xe70 <DS18X20_read_meas_all_verbose+0x2e0>
     c24:	8d e0       	ldi	r24, 0x0D	; 13
     c26:	0e 94 b5 00 	call	0x16a	; 0x16a <UART_SEND>
     c2a:	8e eb       	ldi	r24, 0xBE	; 190
     c2c:	0e 94 4b 0d 	call	0x1a96	; 0x1a96 <ow_byte_wr>
     c30:	5c e1       	ldi	r21, 0x1C	; 28
     c32:	65 2e       	mov	r6, r21
     c34:	71 2c       	mov	r7, r1
     c36:	6c 0e       	add	r6, r28
     c38:	7d 1e       	adc	r7, r29
     c3a:	63 01       	movw	r12, r6
     c3c:	0e 94 a2 0d 	call	0x1b44	; 0x1b44 <ow_byte_rd>
     c40:	f3 01       	movw	r30, r6
     c42:	81 93       	st	Z+, r24
     c44:	3f 01       	movw	r6, r30
     c46:	ee 15       	cp	r30, r14
     c48:	ff 05       	cpc	r31, r15
     c4a:	c1 f7       	brne	.-16     	; 0xc3c <DS18X20_read_meas_all_verbose+0xac>
     c4c:	84 e0       	ldi	r24, 0x04	; 4
     c4e:	91 e0       	ldi	r25, 0x01	; 1
     c50:	0e 94 b9 00 	call	0x172	; 0x172 <UART_SENDSTR>
     c54:	61 2c       	mov	r6, r1
     c56:	71 2c       	mov	r7, r1
     c58:	08 c0       	rjmp	.+16     	; 0xc6a <DS18X20_read_meas_all_verbose+0xda>
     c5a:	f8 e0       	ldi	r31, 0x08	; 8
     c5c:	6f 16       	cp	r6, r31
     c5e:	71 04       	cpc	r7, r1
     c60:	21 f4       	brne	.+8      	; 0xc6a <DS18X20_read_meas_all_verbose+0xda>
     c62:	8d e8       	ldi	r24, 0x8D	; 141
     c64:	90 e0       	ldi	r25, 0x00	; 0
     c66:	0e 94 b9 00 	call	0x172	; 0x172 <UART_SENDSTR>
     c6a:	f6 01       	movw	r30, r12
     c6c:	81 91       	ld	r24, Z+
     c6e:	6f 01       	movw	r12, r30
     c70:	90 e0       	ldi	r25, 0x00	; 0
     c72:	0e 94 15 01 	call	0x22a	; 0x22a <uart_puthex_byte>
     c76:	81 e2       	ldi	r24, 0x21	; 33
     c78:	93 e0       	ldi	r25, 0x03	; 3
     c7a:	0e 94 b9 00 	call	0x172	; 0x172 <UART_SENDSTR>
     c7e:	ff ef       	ldi	r31, 0xFF	; 255
     c80:	6f 1a       	sub	r6, r31
     c82:	7f 0a       	sbc	r7, r31
     c84:	89 e0       	ldi	r24, 0x09	; 9
     c86:	68 16       	cp	r6, r24
     c88:	71 04       	cpc	r7, r1
     c8a:	39 f7       	brne	.-50     	; 0xc5a <DS18X20_read_meas_all_verbose+0xca>
     c8c:	69 e0       	ldi	r22, 0x09	; 9
     c8e:	70 e0       	ldi	r23, 0x00	; 0
     c90:	ce 01       	movw	r24, r28
     c92:	4c 96       	adiw	r24, 0x1c	; 28
     c94:	0e 94 87 03 	call	0x70e	; 0x70e <crc8>
     c98:	88 23       	and	r24, r24
     c9a:	19 f0       	breq	.+6      	; 0xca2 <DS18X20_read_meas_all_verbose+0x112>
     c9c:	8e ea       	ldi	r24, 0xAE	; 174
     c9e:	90 e0       	ldi	r25, 0x00	; 0
     ca0:	02 c0       	rjmp	.+4      	; 0xca6 <DS18X20_read_meas_all_verbose+0x116>
     ca2:	89 eb       	ldi	r24, 0xB9	; 185
     ca4:	90 e0       	ldi	r25, 0x00	; 0
     ca6:	0e 94 b9 00 	call	0x172	; 0x172 <UART_SENDSTR>
     caa:	8d e0       	ldi	r24, 0x0D	; 13
     cac:	0e 94 b5 00 	call	0x16a	; 0x16a <UART_SEND>
     cb0:	8c 8d       	ldd	r24, Y+28	; 0x1c
     cb2:	bd 8c       	ldd	r11, Y+29	; 0x1d
     cb4:	a1 2c       	mov	r10, r1
     cb6:	65 01       	movw	r12, r10
     cb8:	c8 2a       	or	r12, r24
     cba:	88 e0       	ldi	r24, 0x08	; 8
     cbc:	91 e0       	ldi	r25, 0x01	; 1
     cbe:	0e 94 b9 00 	call	0x172	; 0x172 <UART_SENDSTR>
     cc2:	8d 2d       	mov	r24, r13
     cc4:	90 e0       	ldi	r25, 0x00	; 0
     cc6:	0e 94 15 01 	call	0x22a	; 0x22a <uart_puthex_byte>
     cca:	c6 01       	movw	r24, r12
     ccc:	99 27       	eor	r25, r25
     cce:	0e 94 15 01 	call	0x22a	; 0x22a <uart_puthex_byte>
     cd2:	81 e2       	ldi	r24, 0x21	; 33
     cd4:	93 e0       	ldi	r25, 0x03	; 3
     cd6:	0e 94 b9 00 	call	0x172	; 0x172 <UART_SENDSTR>
     cda:	8d a1       	ldd	r24, Y+37	; 0x25
     cdc:	80 31       	cpi	r24, 0x10	; 16
     cde:	19 f4       	brne	.+6      	; 0xce6 <DS18X20_read_meas_all_verbose+0x156>
     ce0:	80 e1       	ldi	r24, 0x10	; 16
     ce2:	91 e0       	ldi	r25, 0x01	; 1
     ce4:	18 c0       	rjmp	.+48     	; 0xd16 <DS18X20_read_meas_all_verbose+0x186>
     ce6:	88 32       	cpi	r24, 0x28	; 40
     ce8:	11 f0       	breq	.+4      	; 0xcee <DS18X20_read_meas_all_verbose+0x15e>
     cea:	82 32       	cpi	r24, 0x22	; 34
     cec:	b1 f4       	brne	.+44     	; 0xd1a <DS18X20_read_meas_all_verbose+0x18a>
     cee:	88 a1       	ldd	r24, Y+32	; 0x20
     cf0:	98 2f       	mov	r25, r24
     cf2:	90 76       	andi	r25, 0x60	; 96
     cf4:	90 36       	cpi	r25, 0x60	; 96
     cf6:	19 f4       	brne	.+6      	; 0xcfe <DS18X20_read_meas_all_verbose+0x16e>
     cf8:	87 e1       	ldi	r24, 0x17	; 23
     cfa:	91 e0       	ldi	r25, 0x01	; 1
     cfc:	0c c0       	rjmp	.+24     	; 0xd16 <DS18X20_read_meas_all_verbose+0x186>
     cfe:	86 ff       	sbrs	r24, 6
     d00:	03 c0       	rjmp	.+6      	; 0xd08 <DS18X20_read_meas_all_verbose+0x178>
     d02:	8e e1       	ldi	r24, 0x1E	; 30
     d04:	91 e0       	ldi	r25, 0x01	; 1
     d06:	07 c0       	rjmp	.+14     	; 0xd16 <DS18X20_read_meas_all_verbose+0x186>
     d08:	85 ff       	sbrs	r24, 5
     d0a:	03 c0       	rjmp	.+6      	; 0xd12 <DS18X20_read_meas_all_verbose+0x182>
     d0c:	85 e2       	ldi	r24, 0x25	; 37
     d0e:	91 e0       	ldi	r25, 0x01	; 1
     d10:	02 c0       	rjmp	.+4      	; 0xd16 <DS18X20_read_meas_all_verbose+0x186>
     d12:	8e e2       	ldi	r24, 0x2E	; 46
     d14:	91 e0       	ldi	r25, 0x01	; 1
     d16:	0e 94 b9 00 	call	0x172	; 0x172 <UART_SENDSTR>
     d1a:	81 e2       	ldi	r24, 0x21	; 33
     d1c:	93 e0       	ldi	r25, 0x03	; 3
     d1e:	0e 94 b9 00 	call	0x172	; 0x172 <UART_SENDSTR>
     d22:	2d a1       	ldd	r18, Y+37	; 0x25
     d24:	8c 8d       	ldd	r24, Y+28	; 0x1c
     d26:	9d 8c       	ldd	r9, Y+29	; 0x1d
     d28:	81 2c       	mov	r8, r1
     d2a:	64 01       	movw	r12, r8
     d2c:	c8 2a       	or	r12, r24
     d2e:	20 31       	cpi	r18, 0x10	; 16
     d30:	79 f4       	brne	.+30     	; 0xd50 <DS18X20_read_meas_all_verbose+0x1c0>
     d32:	c6 01       	movw	r24, r12
     d34:	8e 7f       	andi	r24, 0xFE	; 254
     d36:	33 e0       	ldi	r19, 0x03	; 3
     d38:	88 0f       	add	r24, r24
     d3a:	99 1f       	adc	r25, r25
     d3c:	3a 95       	dec	r19
     d3e:	e1 f7       	brne	.-8      	; 0xd38 <DS18X20_read_meas_all_verbose+0x1a8>
     d40:	3a a1       	ldd	r19, Y+34	; 0x22
     d42:	4c e0       	ldi	r20, 0x0C	; 12
     d44:	c4 2e       	mov	r12, r20
     d46:	d1 2c       	mov	r13, r1
     d48:	c3 1a       	sub	r12, r19
     d4a:	d1 08       	sbc	r13, r1
     d4c:	c8 0e       	add	r12, r24
     d4e:	d9 1e       	adc	r13, r25
     d50:	d7 fe       	sbrs	r13, 7
     d52:	05 c0       	rjmp	.+10     	; 0xd5e <DS18X20_read_meas_all_verbose+0x1ce>
     d54:	d1 94       	neg	r13
     d56:	c1 94       	neg	r12
     d58:	d1 08       	sbc	r13, r1
     d5a:	91 e0       	ldi	r25, 0x01	; 1
     d5c:	01 c0       	rjmp	.+2      	; 0xd60 <DS18X20_read_meas_all_verbose+0x1d0>
     d5e:	90 e0       	ldi	r25, 0x00	; 0
     d60:	28 32       	cpi	r18, 0x28	; 40
     d62:	11 f0       	breq	.+4      	; 0xd68 <DS18X20_read_meas_all_verbose+0x1d8>
     d64:	22 32       	cpi	r18, 0x22	; 34
     d66:	89 f4       	brne	.+34     	; 0xd8a <DS18X20_read_meas_all_verbose+0x1fa>
     d68:	88 a1       	ldd	r24, Y+32	; 0x20
     d6a:	28 2f       	mov	r18, r24
     d6c:	20 76       	andi	r18, 0x60	; 96
     d6e:	20 36       	cpi	r18, 0x60	; 96
     d70:	61 f0       	breq	.+24     	; 0xd8a <DS18X20_read_meas_all_verbose+0x1fa>
     d72:	86 ff       	sbrs	r24, 6
     d74:	03 c0       	rjmp	.+6      	; 0xd7c <DS18X20_read_meas_all_verbose+0x1ec>
     d76:	e8 94       	clt
     d78:	c0 f8       	bld	r12, 0
     d7a:	07 c0       	rjmp	.+14     	; 0xd8a <DS18X20_read_meas_all_verbose+0x1fa>
     d7c:	85 ff       	sbrs	r24, 5
     d7e:	03 c0       	rjmp	.+6      	; 0xd86 <DS18X20_read_meas_all_verbose+0x1f6>
     d80:	ec ef       	ldi	r30, 0xFC	; 252
     d82:	ce 22       	and	r12, r30
     d84:	02 c0       	rjmp	.+4      	; 0xd8a <DS18X20_read_meas_all_verbose+0x1fa>
     d86:	f8 ef       	ldi	r31, 0xF8	; 248
     d88:	cf 22       	and	r12, r31
     d8a:	36 01       	movw	r6, r12
     d8c:	84 e0       	ldi	r24, 0x04	; 4
     d8e:	76 94       	lsr	r7
     d90:	67 94       	ror	r6
     d92:	8a 95       	dec	r24
     d94:	e1 f7       	brne	.-8      	; 0xd8e <DS18X20_read_meas_all_verbose+0x1fe>
     d96:	8f e0       	ldi	r24, 0x0F	; 15
     d98:	c8 22       	and	r12, r24
     d9a:	dd 24       	eor	r13, r13
     d9c:	99 23       	and	r25, r25
     d9e:	11 f0       	breq	.+4      	; 0xda4 <DS18X20_read_meas_all_verbose+0x214>
     da0:	8d e2       	ldi	r24, 0x2D	; 45
     da2:	01 c0       	rjmp	.+2      	; 0xda6 <DS18X20_read_meas_all_verbose+0x216>
     da4:	8b e2       	ldi	r24, 0x2B	; 43
     da6:	0e 94 b5 00 	call	0x16a	; 0x16a <UART_SEND>
     daa:	c3 01       	movw	r24, r6
     dac:	99 27       	eor	r25, r25
     dae:	0e 94 d3 00 	call	0x1a6	; 0x1a6 <uart_put_int>
     db2:	8e e9       	ldi	r24, 0x9E	; 158
     db4:	95 e0       	ldi	r25, 0x05	; 5
     db6:	0e 94 b9 00 	call	0x172	; 0x172 <UART_SENDSTR>
     dba:	4a e0       	ldi	r20, 0x0A	; 10
     dbc:	50 e0       	ldi	r21, 0x00	; 0
     dbe:	b8 01       	movw	r22, r16
     dc0:	c2 9c       	mul	r12, r2
     dc2:	c0 01       	movw	r24, r0
     dc4:	c3 9c       	mul	r12, r3
     dc6:	90 0d       	add	r25, r0
     dc8:	d2 9c       	mul	r13, r2
     dca:	90 0d       	add	r25, r0
     dcc:	11 24       	eor	r1, r1
     dce:	0e 94 69 0e 	call	0x1cd2	; 0x1cd2 <itoa>
     dd2:	c1 2c       	mov	r12, r1
     dd4:	d1 2c       	mov	r13, r1
     dd6:	07 c0       	rjmp	.+14     	; 0xde6 <DS18X20_read_meas_all_verbose+0x256>
     dd8:	87 e3       	ldi	r24, 0x37	; 55
     dda:	93 e0       	ldi	r25, 0x03	; 3
     ddc:	0e 94 b9 00 	call	0x172	; 0x172 <UART_SENDSTR>
     de0:	ef ef       	ldi	r30, 0xFF	; 255
     de2:	ce 1a       	sub	r12, r30
     de4:	de 0a       	sbc	r13, r30
     de6:	f8 01       	movw	r30, r16
     de8:	01 90       	ld	r0, Z+
     dea:	00 20       	and	r0, r0
     dec:	e9 f7       	brne	.-6      	; 0xde8 <DS18X20_read_meas_all_verbose+0x258>
     dee:	31 97       	sbiw	r30, 0x01	; 1
     df0:	e0 1b       	sub	r30, r16
     df2:	f1 0b       	sbc	r31, r17
     df4:	84 e0       	ldi	r24, 0x04	; 4
     df6:	90 e0       	ldi	r25, 0x00	; 0
     df8:	8e 1b       	sub	r24, r30
     dfa:	9f 0b       	sbc	r25, r31
     dfc:	c8 16       	cp	r12, r24
     dfe:	d9 06       	cpc	r13, r25
     e00:	58 f3       	brcs	.-42     	; 0xdd8 <DS18X20_read_meas_all_verbose+0x248>
     e02:	c8 01       	movw	r24, r16
     e04:	0e 94 b9 00 	call	0x172	; 0x172 <UART_SENDSTR>
     e08:	80 e5       	ldi	r24, 0x50	; 80
     e0a:	92 e0       	ldi	r25, 0x02	; 2
     e0c:	0e 94 b9 00 	call	0x172	; 0x172 <UART_SENDSTR>
     e10:	be 01       	movw	r22, r28
     e12:	64 5e       	subi	r22, 0xE4	; 228
     e14:	7f 4f       	sbci	r23, 0xFF	; 255
     e16:	8d a1       	ldd	r24, Y+37	; 0x25
     e18:	0e 94 a0 03 	call	0x740	; 0x740 <DS18X20_raw_to_decicelsius>
     e1c:	6c 01       	movw	r12, r24
     e1e:	80 3d       	cpi	r24, 0xD0	; 208
     e20:	f7 e0       	ldi	r31, 0x07	; 7
     e22:	9f 07       	cpc	r25, r31
     e24:	19 f4       	brne	.+6      	; 0xe2c <DS18X20_read_meas_all_verbose+0x29c>
     e26:	85 e3       	ldi	r24, 0x35	; 53
     e28:	91 e0       	ldi	r25, 0x01	; 1
     e2a:	1c c0       	rjmp	.+56     	; 0xe64 <DS18X20_read_meas_all_verbose+0x2d4>
     e2c:	81 e4       	ldi	r24, 0x41	; 65
     e2e:	91 e0       	ldi	r25, 0x01	; 1
     e30:	0e 94 b9 00 	call	0x172	; 0x172 <UART_SENDSTR>
     e34:	c6 01       	movw	r24, r12
     e36:	0e 94 d3 00 	call	0x1a6	; 0x1a6 <uart_put_int>
     e3a:	89 e4       	ldi	r24, 0x49	; 73
     e3c:	91 e0       	ldi	r25, 0x01	; 1
     e3e:	0e 94 b9 00 	call	0x172	; 0x172 <UART_SENDSTR>
     e42:	4a e0       	ldi	r20, 0x0A	; 10
     e44:	be 01       	movw	r22, r28
     e46:	6e 5e       	subi	r22, 0xEE	; 238
     e48:	7f 4f       	sbci	r23, 0xFF	; 255
     e4a:	c6 01       	movw	r24, r12
     e4c:	0e 94 47 05 	call	0xa8e	; 0xa8e <DS18X20_format_from_decicelsius>
     e50:	82 e5       	ldi	r24, 0x52	; 82
     e52:	91 e0       	ldi	r25, 0x01	; 1
     e54:	0e 94 b9 00 	call	0x172	; 0x172 <UART_SENDSTR>
     e58:	ce 01       	movw	r24, r28
     e5a:	42 96       	adiw	r24, 0x12	; 18
     e5c:	0e 94 b9 00 	call	0x172	; 0x172 <UART_SENDSTR>
     e60:	89 e5       	ldi	r24, 0x59	; 89
     e62:	91 e0       	ldi	r25, 0x01	; 1
     e64:	0e 94 b9 00 	call	0x172	; 0x172 <UART_SENDSTR>
     e68:	88 e1       	ldi	r24, 0x18	; 24
     e6a:	92 e0       	ldi	r25, 0x02	; 2
     e6c:	0e 94 b9 00 	call	0x172	; 0x172 <UART_SENDSTR>
     e70:	51 10       	cpse	r5, r1
     e72:	b4 ce       	rjmp	.-664    	; 0xbdc <DS18X20_read_meas_all_verbose+0x4c>
     e74:	88 e1       	ldi	r24, 0x18	; 24
     e76:	92 e0       	ldi	r25, 0x02	; 2
     e78:	0e 94 b9 00 	call	0x172	; 0x172 <UART_SENDSTR>
     e7c:	80 e0       	ldi	r24, 0x00	; 0
     e7e:	ac 96       	adiw	r28, 0x2c	; 44
     e80:	0f b6       	in	r0, 0x3f	; 63
     e82:	f8 94       	cli
     e84:	de bf       	out	0x3e, r29	; 62
     e86:	0f be       	out	0x3f, r0	; 63
     e88:	cd bf       	out	0x3d, r28	; 61
     e8a:	df 91       	pop	r29
     e8c:	cf 91       	pop	r28
     e8e:	1f 91       	pop	r17
     e90:	0f 91       	pop	r16
     e92:	ff 90       	pop	r15
     e94:	ef 90       	pop	r14
     e96:	df 90       	pop	r13
     e98:	cf 90       	pop	r12
     e9a:	bf 90       	pop	r11
     e9c:	af 90       	pop	r10
     e9e:	9f 90       	pop	r9
     ea0:	8f 90       	pop	r8
     ea2:	7f 90       	pop	r7
     ea4:	6f 90       	pop	r6
     ea6:	5f 90       	pop	r5
     ea8:	3f 90       	pop	r3
     eaa:	2f 90       	pop	r2
     eac:	08 95       	ret

00000eae <DS18X20_read_decicelsius>:
     eae:	df 92       	push	r13
     eb0:	ef 92       	push	r14
     eb2:	ff 92       	push	r15
     eb4:	0f 93       	push	r16
     eb6:	1f 93       	push	r17
     eb8:	cf 93       	push	r28
     eba:	df 93       	push	r29
     ebc:	cd b7       	in	r28, 0x3d	; 61
     ebe:	de b7       	in	r29, 0x3e	; 62
     ec0:	29 97       	sbiw	r28, 0x09	; 9
     ec2:	0f b6       	in	r0, 0x3f	; 63
     ec4:	f8 94       	cli
     ec6:	de bf       	out	0x3e, r29	; 62
     ec8:	0f be       	out	0x3f, r0	; 63
     eca:	cd bf       	out	0x3d, r28	; 61
     ecc:	8c 01       	movw	r16, r24
     ece:	7b 01       	movw	r14, r22
     ed0:	0e 94 ed 0c 	call	0x19da	; 0x19da <ow_reset>
     ed4:	49 e0       	ldi	r20, 0x09	; 9
     ed6:	be 01       	movw	r22, r28
     ed8:	6f 5f       	subi	r22, 0xFF	; 255
     eda:	7f 4f       	sbci	r23, 0xFF	; 255
     edc:	c8 01       	movw	r24, r16
     ede:	0e 94 59 04 	call	0x8b2	; 0x8b2 <read_scratchpad>
     ee2:	d8 2e       	mov	r13, r24
     ee4:	81 11       	cpse	r24, r1
     ee6:	0a c0       	rjmp	.+20     	; 0xefc <DS18X20_read_decicelsius+0x4e>
     ee8:	be 01       	movw	r22, r28
     eea:	6f 5f       	subi	r22, 0xFF	; 255
     eec:	7f 4f       	sbci	r23, 0xFF	; 255
     eee:	f8 01       	movw	r30, r16
     ef0:	80 81       	ld	r24, Z
     ef2:	0e 94 a0 03 	call	0x740	; 0x740 <DS18X20_raw_to_decicelsius>
     ef6:	f7 01       	movw	r30, r14
     ef8:	91 83       	std	Z+1, r25	; 0x01
     efa:	80 83       	st	Z, r24
     efc:	8d 2d       	mov	r24, r13
     efe:	29 96       	adiw	r28, 0x09	; 9
     f00:	0f b6       	in	r0, 0x3f	; 63
     f02:	f8 94       	cli
     f04:	de bf       	out	0x3e, r29	; 62
     f06:	0f be       	out	0x3f, r0	; 63
     f08:	cd bf       	out	0x3d, r28	; 61
     f0a:	df 91       	pop	r29
     f0c:	cf 91       	pop	r28
     f0e:	1f 91       	pop	r17
     f10:	0f 91       	pop	r16
     f12:	ff 90       	pop	r15
     f14:	ef 90       	pop	r14
     f16:	df 90       	pop	r13
     f18:	08 95       	ret

00000f1a <DS18X20_read_decicelsius_single>:
     f1a:	ef 92       	push	r14
     f1c:	ff 92       	push	r15
     f1e:	0f 93       	push	r16
     f20:	1f 93       	push	r17
     f22:	cf 93       	push	r28
     f24:	df 93       	push	r29
     f26:	cd b7       	in	r28, 0x3d	; 61
     f28:	de b7       	in	r29, 0x3e	; 62
     f2a:	29 97       	sbiw	r28, 0x09	; 9
     f2c:	0f b6       	in	r0, 0x3f	; 63
     f2e:	f8 94       	cli
     f30:	de bf       	out	0x3e, r29	; 62
     f32:	0f be       	out	0x3f, r0	; 63
     f34:	cd bf       	out	0x3d, r28	; 61
     f36:	e8 2e       	mov	r14, r24
     f38:	8b 01       	movw	r16, r22
     f3a:	49 e0       	ldi	r20, 0x09	; 9
     f3c:	be 01       	movw	r22, r28
     f3e:	6f 5f       	subi	r22, 0xFF	; 255
     f40:	7f 4f       	sbci	r23, 0xFF	; 255
     f42:	80 e0       	ldi	r24, 0x00	; 0
     f44:	90 e0       	ldi	r25, 0x00	; 0
     f46:	0e 94 59 04 	call	0x8b2	; 0x8b2 <read_scratchpad>
     f4a:	f8 2e       	mov	r15, r24
     f4c:	81 11       	cpse	r24, r1
     f4e:	09 c0       	rjmp	.+18     	; 0xf62 <DS18X20_read_decicelsius_single+0x48>
     f50:	be 01       	movw	r22, r28
     f52:	6f 5f       	subi	r22, 0xFF	; 255
     f54:	7f 4f       	sbci	r23, 0xFF	; 255
     f56:	8e 2d       	mov	r24, r14
     f58:	0e 94 a0 03 	call	0x740	; 0x740 <DS18X20_raw_to_decicelsius>
     f5c:	f8 01       	movw	r30, r16
     f5e:	91 83       	std	Z+1, r25	; 0x01
     f60:	80 83       	st	Z, r24
     f62:	8f 2d       	mov	r24, r15
     f64:	29 96       	adiw	r28, 0x09	; 9
     f66:	0f b6       	in	r0, 0x3f	; 63
     f68:	f8 94       	cli
     f6a:	de bf       	out	0x3e, r29	; 62
     f6c:	0f be       	out	0x3f, r0	; 63
     f6e:	cd bf       	out	0x3d, r28	; 61
     f70:	df 91       	pop	r29
     f72:	cf 91       	pop	r28
     f74:	1f 91       	pop	r17
     f76:	0f 91       	pop	r16
     f78:	ff 90       	pop	r15
     f7a:	ef 90       	pop	r14
     f7c:	08 95       	ret

00000f7e <DS18X20_read_maxres>:
     f7e:	df 92       	push	r13
     f80:	ef 92       	push	r14
     f82:	ff 92       	push	r15
     f84:	0f 93       	push	r16
     f86:	1f 93       	push	r17
     f88:	cf 93       	push	r28
     f8a:	df 93       	push	r29
     f8c:	cd b7       	in	r28, 0x3d	; 61
     f8e:	de b7       	in	r29, 0x3e	; 62
     f90:	29 97       	sbiw	r28, 0x09	; 9
     f92:	0f b6       	in	r0, 0x3f	; 63
     f94:	f8 94       	cli
     f96:	de bf       	out	0x3e, r29	; 62
     f98:	0f be       	out	0x3f, r0	; 63
     f9a:	cd bf       	out	0x3d, r28	; 61
     f9c:	8c 01       	movw	r16, r24
     f9e:	7b 01       	movw	r14, r22
     fa0:	0e 94 ed 0c 	call	0x19da	; 0x19da <ow_reset>
     fa4:	49 e0       	ldi	r20, 0x09	; 9
     fa6:	be 01       	movw	r22, r28
     fa8:	6f 5f       	subi	r22, 0xFF	; 255
     faa:	7f 4f       	sbci	r23, 0xFF	; 255
     fac:	c8 01       	movw	r24, r16
     fae:	0e 94 59 04 	call	0x8b2	; 0x8b2 <read_scratchpad>
     fb2:	d8 2e       	mov	r13, r24
     fb4:	81 11       	cpse	r24, r1
     fb6:	0c c0       	rjmp	.+24     	; 0xfd0 <DS18X20_read_maxres+0x52>
     fb8:	be 01       	movw	r22, r28
     fba:	6f 5f       	subi	r22, 0xFF	; 255
     fbc:	7f 4f       	sbci	r23, 0xFF	; 255
     fbe:	f8 01       	movw	r30, r16
     fc0:	80 81       	ld	r24, Z
     fc2:	0e 94 fe 03 	call	0x7fc	; 0x7fc <DS18X20_raw_to_maxres>
     fc6:	f7 01       	movw	r30, r14
     fc8:	60 83       	st	Z, r22
     fca:	71 83       	std	Z+1, r23	; 0x01
     fcc:	82 83       	std	Z+2, r24	; 0x02
     fce:	93 83       	std	Z+3, r25	; 0x03
     fd0:	8d 2d       	mov	r24, r13
     fd2:	29 96       	adiw	r28, 0x09	; 9
     fd4:	0f b6       	in	r0, 0x3f	; 63
     fd6:	f8 94       	cli
     fd8:	de bf       	out	0x3e, r29	; 62
     fda:	0f be       	out	0x3f, r0	; 63
     fdc:	cd bf       	out	0x3d, r28	; 61
     fde:	df 91       	pop	r29
     fe0:	cf 91       	pop	r28
     fe2:	1f 91       	pop	r17
     fe4:	0f 91       	pop	r16
     fe6:	ff 90       	pop	r15
     fe8:	ef 90       	pop	r14
     fea:	df 90       	pop	r13
     fec:	08 95       	ret

00000fee <DS18X20_read_maxres_single>:
     fee:	ef 92       	push	r14
     ff0:	ff 92       	push	r15
     ff2:	0f 93       	push	r16
     ff4:	1f 93       	push	r17
     ff6:	cf 93       	push	r28
     ff8:	df 93       	push	r29
     ffa:	cd b7       	in	r28, 0x3d	; 61
     ffc:	de b7       	in	r29, 0x3e	; 62
     ffe:	29 97       	sbiw	r28, 0x09	; 9
    1000:	0f b6       	in	r0, 0x3f	; 63
    1002:	f8 94       	cli
    1004:	de bf       	out	0x3e, r29	; 62
    1006:	0f be       	out	0x3f, r0	; 63
    1008:	cd bf       	out	0x3d, r28	; 61
    100a:	e8 2e       	mov	r14, r24
    100c:	8b 01       	movw	r16, r22
    100e:	49 e0       	ldi	r20, 0x09	; 9
    1010:	be 01       	movw	r22, r28
    1012:	6f 5f       	subi	r22, 0xFF	; 255
    1014:	7f 4f       	sbci	r23, 0xFF	; 255
    1016:	80 e0       	ldi	r24, 0x00	; 0
    1018:	90 e0       	ldi	r25, 0x00	; 0
    101a:	0e 94 59 04 	call	0x8b2	; 0x8b2 <read_scratchpad>
    101e:	f8 2e       	mov	r15, r24
    1020:	81 11       	cpse	r24, r1
    1022:	0b c0       	rjmp	.+22     	; 0x103a <DS18X20_read_maxres_single+0x4c>
    1024:	be 01       	movw	r22, r28
    1026:	6f 5f       	subi	r22, 0xFF	; 255
    1028:	7f 4f       	sbci	r23, 0xFF	; 255
    102a:	8e 2d       	mov	r24, r14
    102c:	0e 94 fe 03 	call	0x7fc	; 0x7fc <DS18X20_raw_to_maxres>
    1030:	f8 01       	movw	r30, r16
    1032:	60 83       	st	Z, r22
    1034:	71 83       	std	Z+1, r23	; 0x01
    1036:	82 83       	std	Z+2, r24	; 0x02
    1038:	93 83       	std	Z+3, r25	; 0x03
    103a:	8f 2d       	mov	r24, r15
    103c:	29 96       	adiw	r28, 0x09	; 9
    103e:	0f b6       	in	r0, 0x3f	; 63
    1040:	f8 94       	cli
    1042:	de bf       	out	0x3e, r29	; 62
    1044:	0f be       	out	0x3f, r0	; 63
    1046:	cd bf       	out	0x3d, r28	; 61
    1048:	df 91       	pop	r29
    104a:	cf 91       	pop	r28
    104c:	1f 91       	pop	r17
    104e:	0f 91       	pop	r16
    1050:	ff 90       	pop	r15
    1052:	ef 90       	pop	r14
    1054:	08 95       	ret

00001056 <DS18X20_format_from_maxres>:
    1056:	af 92       	push	r10
    1058:	bf 92       	push	r11
    105a:	cf 92       	push	r12
    105c:	df 92       	push	r13
    105e:	ef 92       	push	r14
    1060:	ff 92       	push	r15
    1062:	0f 93       	push	r16
    1064:	1f 93       	push	r17
    1066:	cf 93       	push	r28
    1068:	df 93       	push	r29
    106a:	cd b7       	in	r28, 0x3d	; 61
    106c:	de b7       	in	r29, 0x3e	; 62
    106e:	6a 97       	sbiw	r28, 0x1a	; 26
    1070:	0f b6       	in	r0, 0x3f	; 63
    1072:	f8 94       	cli
    1074:	de bf       	out	0x3e, r29	; 62
    1076:	0f be       	out	0x3f, r0	; 63
    1078:	cd bf       	out	0x3d, r28	; 61
    107a:	7a 01       	movw	r14, r20
    107c:	2a 30       	cpi	r18, 0x0A	; 10
    107e:	08 f4       	brcc	.+2      	; 0x1082 <DS18X20_format_from_maxres+0x2c>
    1080:	8e c0       	rjmp	.+284    	; 0x119e <DS18X20_format_from_maxres+0x148>
    1082:	61 3c       	cpi	r22, 0xC1	; 193
    1084:	2d eb       	ldi	r18, 0xBD	; 189
    1086:	72 07       	cpc	r23, r18
    1088:	20 ef       	ldi	r18, 0xF0	; 240
    108a:	82 07       	cpc	r24, r18
    108c:	2f ef       	ldi	r18, 0xFF	; 255
    108e:	92 07       	cpc	r25, r18
    1090:	0c f4       	brge	.+2      	; 0x1094 <DS18X20_format_from_maxres+0x3e>
    1092:	85 c0       	rjmp	.+266    	; 0x119e <DS18X20_format_from_maxres+0x148>
    1094:	60 38       	cpi	r22, 0x80	; 128
    1096:	e6 e9       	ldi	r30, 0x96	; 150
    1098:	7e 07       	cpc	r23, r30
    109a:	e8 e9       	ldi	r30, 0x98	; 152
    109c:	8e 07       	cpc	r24, r30
    109e:	91 05       	cpc	r25, r1
    10a0:	0c f0       	brlt	.+2      	; 0x10a4 <DS18X20_format_from_maxres+0x4e>
    10a2:	7d c0       	rjmp	.+250    	; 0x119e <DS18X20_format_from_maxres+0x148>
    10a4:	97 ff       	sbrs	r25, 7
    10a6:	0a c0       	rjmp	.+20     	; 0x10bc <DS18X20_format_from_maxres+0x66>
    10a8:	90 95       	com	r25
    10aa:	80 95       	com	r24
    10ac:	70 95       	com	r23
    10ae:	61 95       	neg	r22
    10b0:	7f 4f       	sbci	r23, 0xFF	; 255
    10b2:	8f 4f       	sbci	r24, 0xFF	; 255
    10b4:	9f 4f       	sbci	r25, 0xFF	; 255
    10b6:	dd 24       	eor	r13, r13
    10b8:	d3 94       	inc	r13
    10ba:	01 c0       	rjmp	.+2      	; 0x10be <DS18X20_format_from_maxres+0x68>
    10bc:	d1 2c       	mov	r13, r1
    10be:	8e 01       	movw	r16, r28
    10c0:	0f 5f       	subi	r16, 0xFF	; 255
    10c2:	1f 4f       	sbci	r17, 0xFF	; 255
    10c4:	c0 2e       	mov	r12, r16
    10c6:	e8 e0       	ldi	r30, 0x08	; 8
    10c8:	ae 2e       	mov	r10, r30
    10ca:	b0 2e       	mov	r11, r16
    10cc:	bc 18       	sub	r11, r12
    10ce:	2a e0       	ldi	r18, 0x0A	; 10
    10d0:	30 e0       	ldi	r19, 0x00	; 0
    10d2:	40 e0       	ldi	r20, 0x00	; 0
    10d4:	50 e0       	ldi	r21, 0x00	; 0
    10d6:	0e 94 0b 0e 	call	0x1c16	; 0x1c16 <__divmodsi4>
    10da:	2b 8b       	std	Y+19, r18	; 0x13
    10dc:	3c 8b       	std	Y+20, r19	; 0x14
    10de:	4d 8b       	std	Y+21, r20	; 0x15
    10e0:	5e 8b       	std	Y+22, r21	; 0x16
    10e2:	6f 8b       	std	Y+23, r22	; 0x17
    10e4:	78 8f       	std	Y+24, r23	; 0x18
    10e6:	89 8f       	std	Y+25, r24	; 0x19
    10e8:	9a 8f       	std	Y+26, r25	; 0x1a
    10ea:	fe 01       	movw	r30, r28
    10ec:	73 96       	adiw	r30, 0x13	; 19
    10ee:	de 01       	movw	r26, r28
    10f0:	1b 96       	adiw	r26, 0x0b	; 11
    10f2:	8a 2d       	mov	r24, r10
    10f4:	01 90       	ld	r0, Z+
    10f6:	0d 92       	st	X+, r0
    10f8:	8a 95       	dec	r24
    10fa:	e1 f7       	brne	.-8      	; 0x10f4 <DS18X20_format_from_maxres+0x9e>
    10fc:	8f 85       	ldd	r24, Y+15	; 0x0f
    10fe:	80 5d       	subi	r24, 0xD0	; 208
    1100:	f8 01       	movw	r30, r16
    1102:	81 93       	st	Z+, r24
    1104:	8f 01       	movw	r16, r30
    1106:	2e 2f       	mov	r18, r30
    1108:	2c 19       	sub	r18, r12
    110a:	6b 85       	ldd	r22, Y+11	; 0x0b
    110c:	7c 85       	ldd	r23, Y+12	; 0x0c
    110e:	8d 85       	ldd	r24, Y+13	; 0x0d
    1110:	9e 85       	ldd	r25, Y+14	; 0x0e
    1112:	16 16       	cp	r1, r22
    1114:	17 06       	cpc	r1, r23
    1116:	18 06       	cpc	r1, r24
    1118:	19 06       	cpc	r1, r25
    111a:	bc f2       	brlt	.-82     	; 0x10ca <DS18X20_format_from_maxres+0x74>
    111c:	82 2f       	mov	r24, r18
    111e:	82 50       	subi	r24, 0x02	; 2
    1120:	82 30       	cpi	r24, 0x02	; 2
    1122:	48 f4       	brcc	.+18     	; 0x1136 <DS18X20_format_from_maxres+0xe0>
    1124:	fe 01       	movw	r30, r28
    1126:	e2 0f       	add	r30, r18
    1128:	f1 1d       	adc	r31, r1
    112a:	27 fd       	sbrc	r18, 7
    112c:	fa 95       	dec	r31
    112e:	80 e3       	ldi	r24, 0x30	; 48
    1130:	81 83       	std	Z+1, r24	; 0x01
    1132:	2b 2d       	mov	r18, r11
    1134:	2e 5f       	subi	r18, 0xFE	; 254
    1136:	82 2f       	mov	r24, r18
    1138:	99 27       	eor	r25, r25
    113a:	87 fd       	sbrc	r24, 7
    113c:	90 95       	com	r25
    113e:	e1 e0       	ldi	r30, 0x01	; 1
    1140:	f0 e0       	ldi	r31, 0x00	; 0
    1142:	ec 0f       	add	r30, r28
    1144:	fd 1f       	adc	r31, r29
    1146:	e8 0f       	add	r30, r24
    1148:	f9 1f       	adc	r31, r25
    114a:	dd 20       	and	r13, r13
    114c:	29 f0       	breq	.+10     	; 0x1158 <DS18X20_format_from_maxres+0x102>
    114e:	3d e2       	ldi	r19, 0x2D	; 45
    1150:	30 83       	st	Z, r19
    1152:	90 e0       	ldi	r25, 0x00	; 0
    1154:	3e e2       	ldi	r19, 0x2E	; 46
    1156:	03 c0       	rjmp	.+6      	; 0x115e <DS18X20_format_from_maxres+0x108>
    1158:	3b e2       	ldi	r19, 0x2B	; 43
    115a:	fa cf       	rjmp	.-12     	; 0x1150 <DS18X20_format_from_maxres+0xfa>
    115c:	98 2f       	mov	r25, r24
    115e:	f7 01       	movw	r30, r14
    1160:	e9 0f       	add	r30, r25
    1162:	f1 1d       	adc	r31, r1
    1164:	a1 e0       	ldi	r26, 0x01	; 1
    1166:	b0 e0       	ldi	r27, 0x00	; 0
    1168:	ac 0f       	add	r26, r28
    116a:	bd 1f       	adc	r27, r29
    116c:	a2 0f       	add	r26, r18
    116e:	b1 1d       	adc	r27, r1
    1170:	27 fd       	sbrc	r18, 7
    1172:	ba 95       	dec	r27
    1174:	8c 91       	ld	r24, X
    1176:	80 83       	st	Z, r24
    1178:	89 2f       	mov	r24, r25
    117a:	8f 5f       	subi	r24, 0xFF	; 255
    117c:	21 50       	subi	r18, 0x01	; 1
    117e:	23 30       	cpi	r18, 0x03	; 3
    1180:	31 f4       	brne	.+12     	; 0x118e <DS18X20_format_from_maxres+0x138>
    1182:	f7 01       	movw	r30, r14
    1184:	e8 0f       	add	r30, r24
    1186:	f1 1d       	adc	r31, r1
    1188:	30 83       	st	Z, r19
    118a:	8f 5f       	subi	r24, 0xFF	; 255
    118c:	e7 cf       	rjmp	.-50     	; 0x115c <DS18X20_format_from_maxres+0x106>
    118e:	27 ff       	sbrs	r18, 7
    1190:	e5 cf       	rjmp	.-54     	; 0x115c <DS18X20_format_from_maxres+0x106>
    1192:	f7 01       	movw	r30, r14
    1194:	e8 0f       	add	r30, r24
    1196:	f1 1d       	adc	r31, r1
    1198:	10 82       	st	Z, r1
    119a:	80 e0       	ldi	r24, 0x00	; 0
    119c:	01 c0       	rjmp	.+2      	; 0x11a0 <DS18X20_format_from_maxres+0x14a>
    119e:	81 e0       	ldi	r24, 0x01	; 1
    11a0:	6a 96       	adiw	r28, 0x1a	; 26
    11a2:	0f b6       	in	r0, 0x3f	; 63
    11a4:	f8 94       	cli
    11a6:	de bf       	out	0x3e, r29	; 62
    11a8:	0f be       	out	0x3f, r0	; 63
    11aa:	cd bf       	out	0x3d, r28	; 61
    11ac:	df 91       	pop	r29
    11ae:	cf 91       	pop	r28
    11b0:	1f 91       	pop	r17
    11b2:	0f 91       	pop	r16
    11b4:	ff 90       	pop	r15
    11b6:	ef 90       	pop	r14
    11b8:	df 90       	pop	r13
    11ba:	cf 90       	pop	r12
    11bc:	bf 90       	pop	r11
    11be:	af 90       	pop	r10
    11c0:	08 95       	ret

000011c2 <DS18X20_write_scratchpad>:
    11c2:	ff 92       	push	r15
    11c4:	0f 93       	push	r16
    11c6:	1f 93       	push	r17
    11c8:	cf 93       	push	r28
    11ca:	df 93       	push	r29
    11cc:	ec 01       	movw	r28, r24
    11ce:	16 2f       	mov	r17, r22
    11d0:	f4 2e       	mov	r15, r20
    11d2:	02 2f       	mov	r16, r18
    11d4:	0e 94 ed 0c 	call	0x19da	; 0x19da <ow_reset>
    11d8:	0e 94 70 0c 	call	0x18e0	; 0x18e0 <ow_input_pin_state>
    11dc:	88 23       	and	r24, r24
    11de:	99 f0       	breq	.+38     	; 0x1206 <DS18X20_write_scratchpad+0x44>
    11e0:	be 01       	movw	r22, r28
    11e2:	8e e4       	ldi	r24, 0x4E	; 78
    11e4:	0e 94 f1 0d 	call	0x1be2	; 0x1be2 <ow_command>
    11e8:	81 2f       	mov	r24, r17
    11ea:	0e 94 4b 0d 	call	0x1a96	; 0x1a96 <ow_byte_wr>
    11ee:	8f 2d       	mov	r24, r15
    11f0:	0e 94 4b 0d 	call	0x1a96	; 0x1a96 <ow_byte_wr>
    11f4:	98 81       	ld	r25, Y
    11f6:	98 32       	cpi	r25, 0x28	; 40
    11f8:	11 f0       	breq	.+4      	; 0x11fe <DS18X20_write_scratchpad+0x3c>
    11fa:	92 32       	cpi	r25, 0x22	; 34
    11fc:	51 f4       	brne	.+20     	; 0x1212 <DS18X20_write_scratchpad+0x50>
    11fe:	80 2f       	mov	r24, r16
    1200:	0e 94 4b 0d 	call	0x1a96	; 0x1a96 <ow_byte_wr>
    1204:	06 c0       	rjmp	.+12     	; 0x1212 <DS18X20_write_scratchpad+0x50>
    1206:	8e e5       	ldi	r24, 0x5E	; 94
    1208:	91 e0       	ldi	r25, 0x01	; 1
    120a:	0e 94 b9 00 	call	0x172	; 0x172 <UART_SENDSTR>
    120e:	81 e0       	ldi	r24, 0x01	; 1
    1210:	01 c0       	rjmp	.+2      	; 0x1214 <DS18X20_write_scratchpad+0x52>
    1212:	80 e0       	ldi	r24, 0x00	; 0
    1214:	df 91       	pop	r29
    1216:	cf 91       	pop	r28
    1218:	1f 91       	pop	r17
    121a:	0f 91       	pop	r16
    121c:	ff 90       	pop	r15
    121e:	08 95       	ret

00001220 <DS18X20_read_scratchpad>:
    1220:	0f 93       	push	r16
    1222:	1f 93       	push	r17
    1224:	cf 93       	push	r28
    1226:	df 93       	push	r29
    1228:	00 d0       	rcall	.+0      	; 0x122a <DS18X20_read_scratchpad+0xa>
    122a:	1f 92       	push	r1
    122c:	cd b7       	in	r28, 0x3d	; 61
    122e:	de b7       	in	r29, 0x3e	; 62
    1230:	8c 01       	movw	r16, r24
    1232:	4b 83       	std	Y+3, r20	; 0x03
    1234:	69 83       	std	Y+1, r22	; 0x01
    1236:	7a 83       	std	Y+2, r23	; 0x02
    1238:	0e 94 ed 0c 	call	0x19da	; 0x19da <ow_reset>
    123c:	0e 94 70 0c 	call	0x18e0	; 0x18e0 <ow_input_pin_state>
    1240:	4b 81       	ldd	r20, Y+3	; 0x03
    1242:	69 81       	ldd	r22, Y+1	; 0x01
    1244:	7a 81       	ldd	r23, Y+2	; 0x02
    1246:	88 23       	and	r24, r24
    1248:	51 f0       	breq	.+20     	; 0x125e <DS18X20_read_scratchpad+0x3e>
    124a:	c8 01       	movw	r24, r16
    124c:	0f 90       	pop	r0
    124e:	0f 90       	pop	r0
    1250:	0f 90       	pop	r0
    1252:	df 91       	pop	r29
    1254:	cf 91       	pop	r28
    1256:	1f 91       	pop	r17
    1258:	0f 91       	pop	r16
    125a:	0c 94 59 04 	jmp	0x8b2	; 0x8b2 <read_scratchpad>
    125e:	88 e8       	ldi	r24, 0x88	; 136
    1260:	91 e0       	ldi	r25, 0x01	; 1
    1262:	0e 94 b9 00 	call	0x172	; 0x172 <UART_SENDSTR>
    1266:	81 e0       	ldi	r24, 0x01	; 1
    1268:	0f 90       	pop	r0
    126a:	0f 90       	pop	r0
    126c:	0f 90       	pop	r0
    126e:	df 91       	pop	r29
    1270:	cf 91       	pop	r28
    1272:	1f 91       	pop	r17
    1274:	0f 91       	pop	r16
    1276:	08 95       	ret

00001278 <DS18X20_scratchpad_to_eeprom>:
    1278:	1f 93       	push	r17
    127a:	cf 93       	push	r28
    127c:	df 93       	push	r29
    127e:	00 d0       	rcall	.+0      	; 0x1280 <DS18X20_scratchpad_to_eeprom+0x8>
    1280:	cd b7       	in	r28, 0x3d	; 61
    1282:	de b7       	in	r29, 0x3e	; 62
    1284:	18 2f       	mov	r17, r24
    1286:	69 83       	std	Y+1, r22	; 0x01
    1288:	7a 83       	std	Y+2, r23	; 0x02
    128a:	0e 94 ed 0c 	call	0x19da	; 0x19da <ow_reset>
    128e:	0e 94 70 0c 	call	0x18e0	; 0x18e0 <ow_input_pin_state>
    1292:	69 81       	ldd	r22, Y+1	; 0x01
    1294:	7a 81       	ldd	r23, Y+2	; 0x02
    1296:	88 23       	and	r24, r24
    1298:	99 f0       	breq	.+38     	; 0x12c0 <DS18X20_scratchpad_to_eeprom+0x48>
    129a:	88 e4       	ldi	r24, 0x48	; 72
    129c:	11 30       	cpi	r17, 0x01	; 1
    129e:	19 f0       	breq	.+6      	; 0x12a6 <DS18X20_scratchpad_to_eeprom+0x2e>
    12a0:	0e 94 f4 0d 	call	0x1be8	; 0x1be8 <ow_command_with_parasite_enable>
    12a4:	02 c0       	rjmp	.+4      	; 0x12aa <DS18X20_scratchpad_to_eeprom+0x32>
    12a6:	0e 94 f1 0d 	call	0x1be2	; 0x1be2 <ow_command>
    12aa:	8f e1       	ldi	r24, 0x1F	; 31
    12ac:	9e e4       	ldi	r25, 0x4E	; 78
    12ae:	01 97       	sbiw	r24, 0x01	; 1
    12b0:	f1 f7       	brne	.-4      	; 0x12ae <DS18X20_scratchpad_to_eeprom+0x36>
    12b2:	00 c0       	rjmp	.+0      	; 0x12b4 <DS18X20_scratchpad_to_eeprom+0x3c>
    12b4:	00 00       	nop
    12b6:	11 30       	cpi	r17, 0x01	; 1
    12b8:	49 f0       	breq	.+18     	; 0x12cc <DS18X20_scratchpad_to_eeprom+0x54>
    12ba:	0e 94 d8 0c 	call	0x19b0	; 0x19b0 <ow_parasite_disable>
    12be:	06 c0       	rjmp	.+12     	; 0x12cc <DS18X20_scratchpad_to_eeprom+0x54>
    12c0:	81 eb       	ldi	r24, 0xB1	; 177
    12c2:	91 e0       	ldi	r25, 0x01	; 1
    12c4:	0e 94 b9 00 	call	0x172	; 0x172 <UART_SENDSTR>
    12c8:	82 e0       	ldi	r24, 0x02	; 2
    12ca:	01 c0       	rjmp	.+2      	; 0x12ce <DS18X20_scratchpad_to_eeprom+0x56>
    12cc:	80 e0       	ldi	r24, 0x00	; 0
    12ce:	0f 90       	pop	r0
    12d0:	0f 90       	pop	r0
    12d2:	df 91       	pop	r29
    12d4:	cf 91       	pop	r28
    12d6:	1f 91       	pop	r17
    12d8:	08 95       	ret

000012da <DS18X20_eeprom_to_scratchpad>:
    12da:	cf 93       	push	r28
    12dc:	df 93       	push	r29
    12de:	ec 01       	movw	r28, r24
    12e0:	0e 94 ed 0c 	call	0x19da	; 0x19da <ow_reset>
    12e4:	0e 94 70 0c 	call	0x18e0	; 0x18e0 <ow_input_pin_state>
    12e8:	88 23       	and	r24, r24
    12ea:	c1 f0       	breq	.+48     	; 0x131c <DS18X20_eeprom_to_scratchpad+0x42>
    12ec:	be 01       	movw	r22, r28
    12ee:	88 eb       	ldi	r24, 0xB8	; 184
    12f0:	0e 94 f1 0d 	call	0x1be2	; 0x1be2 <ow_command>
    12f4:	ce ef       	ldi	r28, 0xFE	; 254
    12f6:	01 c0       	rjmp	.+2      	; 0x12fa <DS18X20_eeprom_to_scratchpad+0x20>
    12f8:	c9 2f       	mov	r28, r25
    12fa:	cf 3f       	cpi	r28, 0xFF	; 255
    12fc:	21 f4       	brne	.+8      	; 0x1306 <DS18X20_eeprom_to_scratchpad+0x2c>
    12fe:	14 c0       	rjmp	.+40     	; 0x1328 <DS18X20_eeprom_to_scratchpad+0x4e>
    1300:	c1 11       	cpse	r28, r1
    1302:	12 c0       	rjmp	.+36     	; 0x1328 <DS18X20_eeprom_to_scratchpad+0x4e>
    1304:	08 c0       	rjmp	.+16     	; 0x1316 <DS18X20_eeprom_to_scratchpad+0x3c>
    1306:	81 e0       	ldi	r24, 0x01	; 1
    1308:	0e 94 47 0d 	call	0x1a8e	; 0x1a8e <ow_bit_io>
    130c:	9c 2f       	mov	r25, r28
    130e:	91 50       	subi	r25, 0x01	; 1
    1310:	88 23       	and	r24, r24
    1312:	91 f3       	breq	.-28     	; 0x12f8 <DS18X20_eeprom_to_scratchpad+0x1e>
    1314:	f5 cf       	rjmp	.-22     	; 0x1300 <DS18X20_eeprom_to_scratchpad+0x26>
    1316:	8a ed       	ldi	r24, 0xDA	; 218
    1318:	91 e0       	ldi	r25, 0x01	; 1
    131a:	02 c0       	rjmp	.+4      	; 0x1320 <DS18X20_eeprom_to_scratchpad+0x46>
    131c:	87 ef       	ldi	r24, 0xF7	; 247
    131e:	91 e0       	ldi	r25, 0x01	; 1
    1320:	0e 94 b9 00 	call	0x172	; 0x172 <UART_SENDSTR>
    1324:	81 e0       	ldi	r24, 0x01	; 1
    1326:	01 c0       	rjmp	.+2      	; 0x132a <DS18X20_eeprom_to_scratchpad+0x50>
    1328:	80 e0       	ldi	r24, 0x00	; 0
    132a:	df 91       	pop	r29
    132c:	cf 91       	pop	r28
    132e:	08 95       	ret

00001330 <th_tl_dump>:
    1330:	cf 93       	push	r28
    1332:	df 93       	push	r29
    1334:	ec 01       	movw	r28, r24
    1336:	49 e0       	ldi	r20, 0x09	; 9
    1338:	bc 01       	movw	r22, r24
    133a:	86 ec       	ldi	r24, 0xC6	; 198
    133c:	95 e0       	ldi	r25, 0x05	; 5
    133e:	0e 94 10 09 	call	0x1220	; 0x1220 <DS18X20_read_scratchpad>
    1342:	8a e1       	ldi	r24, 0x1A	; 26
    1344:	92 e0       	ldi	r25, 0x02	; 2
    1346:	0e 94 b9 00 	call	0x172	; 0x172 <UART_SENDSTR>
    134a:	8a 81       	ldd	r24, Y+2	; 0x02
    134c:	90 e0       	ldi	r25, 0x00	; 0
    134e:	0e 94 d3 00 	call	0x1a6	; 0x1a6 <uart_put_int>
    1352:	81 e4       	ldi	r24, 0x41	; 65
    1354:	92 e0       	ldi	r25, 0x02	; 2
    1356:	0e 94 b9 00 	call	0x172	; 0x172 <UART_SENDSTR>
    135a:	8b 81       	ldd	r24, Y+3	; 0x03
    135c:	90 e0       	ldi	r25, 0x00	; 0
    135e:	0e 94 d3 00 	call	0x1a6	; 0x1a6 <uart_put_int>
    1362:	82 ee       	ldi	r24, 0xE2	; 226
    1364:	94 e0       	ldi	r25, 0x04	; 4
    1366:	df 91       	pop	r29
    1368:	cf 91       	pop	r28
    136a:	0c 94 b9 00 	jmp	0x172	; 0x172 <UART_SENDSTR>

0000136e <uart_put_temp>:
    136e:	0f 93       	push	r16
    1370:	1f 93       	push	r17
    1372:	cf 93       	push	r28
    1374:	df 93       	push	r29
    1376:	cd b7       	in	r28, 0x3d	; 61
    1378:	de b7       	in	r29, 0x3e	; 62
    137a:	2a 97       	sbiw	r28, 0x0a	; 10
    137c:	0f b6       	in	r0, 0x3f	; 63
    137e:	f8 94       	cli
    1380:	de bf       	out	0x3e, r29	; 62
    1382:	0f be       	out	0x3f, r0	; 63
    1384:	cd bf       	out	0x3d, r28	; 61
    1386:	8c 01       	movw	r16, r24
    1388:	0e 94 d3 00 	call	0x1a6	; 0x1a6 <uart_put_int>
    138c:	85 e4       	ldi	r24, 0x45	; 69
    138e:	92 e0       	ldi	r25, 0x02	; 2
    1390:	0e 94 b9 00 	call	0x172	; 0x172 <UART_SENDSTR>
    1394:	4a e0       	ldi	r20, 0x0A	; 10
    1396:	be 01       	movw	r22, r28
    1398:	6f 5f       	subi	r22, 0xFF	; 255
    139a:	7f 4f       	sbci	r23, 0xFF	; 255
    139c:	c8 01       	movw	r24, r16
    139e:	0e 94 47 05 	call	0xa8e	; 0xa8e <DS18X20_format_from_decicelsius>
    13a2:	ce 01       	movw	r24, r28
    13a4:	01 96       	adiw	r24, 0x01	; 1
    13a6:	0e 94 b9 00 	call	0x172	; 0x172 <UART_SENDSTR>
    13aa:	8f e4       	ldi	r24, 0x4F	; 79
    13ac:	92 e0       	ldi	r25, 0x02	; 2
    13ae:	0e 94 b9 00 	call	0x172	; 0x172 <UART_SENDSTR>
    13b2:	2a 96       	adiw	r28, 0x0a	; 10
    13b4:	0f b6       	in	r0, 0x3f	; 63
    13b6:	f8 94       	cli
    13b8:	de bf       	out	0x3e, r29	; 62
    13ba:	0f be       	out	0x3f, r0	; 63
    13bc:	cd bf       	out	0x3d, r28	; 61
    13be:	df 91       	pop	r29
    13c0:	cf 91       	pop	r28
    13c2:	1f 91       	pop	r17
    13c4:	0f 91       	pop	r16
    13c6:	08 95       	ret

000013c8 <search_sensors>:
    13c8:	ff 92       	push	r15
    13ca:	0f 93       	push	r16
    13cc:	1f 93       	push	r17
    13ce:	cf 93       	push	r28
    13d0:	df 93       	push	r29
    13d2:	cd b7       	in	r28, 0x3d	; 61
    13d4:	de b7       	in	r29, 0x3e	; 62
    13d6:	29 97       	sbiw	r28, 0x09	; 9
    13d8:	0f b6       	in	r0, 0x3f	; 63
    13da:	f8 94       	cli
    13dc:	de bf       	out	0x3e, r29	; 62
    13de:	0f be       	out	0x3f, r0	; 63
    13e0:	cd bf       	out	0x3d, r28	; 61
    13e2:	83 e5       	ldi	r24, 0x53	; 83
    13e4:	92 e0       	ldi	r25, 0x02	; 2
    13e6:	0e 94 b9 00 	call	0x172	; 0x172 <UART_SENDSTR>
    13ea:	0e 94 ed 0c 	call	0x19da	; 0x19da <ow_reset>
    13ee:	8f ef       	ldi	r24, 0xFF	; 255
    13f0:	89 87       	std	Y+9, r24	; 0x09
    13f2:	06 ec       	ldi	r16, 0xC6	; 198
    13f4:	15 e0       	ldi	r17, 0x05	; 5
    13f6:	f1 2c       	mov	r15, r1
    13f8:	25 c0       	rjmp	.+74     	; 0x1444 <search_sensors+0x7c>
    13fa:	be 01       	movw	r22, r28
    13fc:	6f 5f       	subi	r22, 0xFF	; 255
    13fe:	7f 4f       	sbci	r23, 0xFF	; 255
    1400:	ce 01       	movw	r24, r28
    1402:	09 96       	adiw	r24, 0x09	; 9
    1404:	0e 94 e4 04 	call	0x9c8	; 0x9c8 <DS18X20_find_sensor>
    1408:	89 85       	ldd	r24, Y+9	; 0x09
    140a:	8f 3f       	cpi	r24, 0xFF	; 255
    140c:	19 f4       	brne	.+6      	; 0x1414 <search_sensors+0x4c>
    140e:	80 e7       	ldi	r24, 0x70	; 112
    1410:	92 e0       	ldi	r25, 0x02	; 2
    1412:	04 c0       	rjmp	.+8      	; 0x141c <search_sensors+0x54>
    1414:	8e 3f       	cpi	r24, 0xFE	; 254
    1416:	29 f4       	brne	.+10     	; 0x1422 <search_sensors+0x5a>
    1418:	82 e8       	ldi	r24, 0x82	; 130
    141a:	92 e0       	ldi	r25, 0x02	; 2
    141c:	0e 94 b9 00 	call	0x172	; 0x172 <UART_SENDSTR>
    1420:	17 c0       	rjmp	.+46     	; 0x1450 <search_sensors+0x88>
    1422:	fe 01       	movw	r30, r28
    1424:	31 96       	adiw	r30, 0x01	; 1
    1426:	20 e0       	ldi	r18, 0x00	; 0
    1428:	30 e0       	ldi	r19, 0x00	; 0
    142a:	81 91       	ld	r24, Z+
    142c:	d8 01       	movw	r26, r16
    142e:	a2 0f       	add	r26, r18
    1430:	b3 1f       	adc	r27, r19
    1432:	8c 93       	st	X, r24
    1434:	2f 5f       	subi	r18, 0xFF	; 255
    1436:	3f 4f       	sbci	r19, 0xFF	; 255
    1438:	28 30       	cpi	r18, 0x08	; 8
    143a:	31 05       	cpc	r19, r1
    143c:	b1 f7       	brne	.-20     	; 0x142a <search_sensors+0x62>
    143e:	f3 94       	inc	r15
    1440:	08 5f       	subi	r16, 0xF8	; 248
    1442:	1f 4f       	sbci	r17, 0xFF	; 255
    1444:	89 85       	ldd	r24, Y+9	; 0x09
    1446:	88 23       	and	r24, r24
    1448:	19 f0       	breq	.+6      	; 0x1450 <search_sensors+0x88>
    144a:	85 e0       	ldi	r24, 0x05	; 5
    144c:	f8 12       	cpse	r15, r24
    144e:	d5 cf       	rjmp	.-86     	; 0x13fa <search_sensors+0x32>
    1450:	8f 2d       	mov	r24, r15
    1452:	29 96       	adiw	r28, 0x09	; 9
    1454:	0f b6       	in	r0, 0x3f	; 63
    1456:	f8 94       	cli
    1458:	de bf       	out	0x3e, r29	; 62
    145a:	0f be       	out	0x3f, r0	; 63
    145c:	cd bf       	out	0x3d, r28	; 61
    145e:	df 91       	pop	r29
    1460:	cf 91       	pop	r28
    1462:	1f 91       	pop	r17
    1464:	0f 91       	pop	r16
    1466:	ff 90       	pop	r15
    1468:	08 95       	ret

0000146a <main>:
    146a:	cf 93       	push	r28
    146c:	df 93       	push	r29
    146e:	cd b7       	in	r28, 0x3d	; 61
    1470:	de b7       	in	r29, 0x3e	; 62
    1472:	60 97       	sbiw	r28, 0x10	; 16
    1474:	0f b6       	in	r0, 0x3f	; 63
    1476:	f8 94       	cli
    1478:	de bf       	out	0x3e, r29	; 62
    147a:	0f be       	out	0x3f, r0	; 63
    147c:	cd bf       	out	0x3d, r28	; 61
    147e:	0e 94 51 00 	call	0xa2	; 0xa2 <UART_INIT>
    1482:	8e e8       	ldi	r24, 0x8E	; 142
    1484:	92 e0       	ldi	r25, 0x02	; 2
    1486:	0e 94 b9 00 	call	0x172	; 0x172 <UART_SENDSTR>
    148a:	8e e8       	ldi	r24, 0x8E	; 142
    148c:	92 e0       	ldi	r25, 0x02	; 2
    148e:	0e 94 b9 00 	call	0x172	; 0x172 <UART_SENDSTR>
    1492:	2f ef       	ldi	r18, 0xFF	; 255
    1494:	87 ea       	ldi	r24, 0xA7	; 167
    1496:	91 e6       	ldi	r25, 0x61	; 97
    1498:	21 50       	subi	r18, 0x01	; 1
    149a:	80 40       	sbci	r24, 0x00	; 0
    149c:	90 40       	sbci	r25, 0x00	; 0
    149e:	e1 f7       	brne	.-8      	; 0x1498 <main+0x2e>
    14a0:	00 c0       	rjmp	.+0      	; 0x14a2 <main+0x38>
    14a2:	00 00       	nop
    14a4:	22 e0       	ldi	r18, 0x02	; 2
    14a6:	4a e3       	ldi	r20, 0x3A	; 58
    14a8:	50 e0       	ldi	r21, 0x00	; 0
    14aa:	6b e3       	ldi	r22, 0x3B	; 59
    14ac:	70 e0       	ldi	r23, 0x00	; 0
    14ae:	89 e3       	ldi	r24, 0x39	; 57
    14b0:	90 e0       	ldi	r25, 0x00	; 0
    14b2:	0e 94 31 0d 	call	0x1a62	; 0x1a62 <ow_set_bus>
    14b6:	83 e9       	ldi	r24, 0x93	; 147
    14b8:	92 e0       	ldi	r25, 0x02	; 2
    14ba:	0e 94 b9 00 	call	0x172	; 0x172 <UART_SENDSTR>
    14be:	ef ef       	ldi	r30, 0xFF	; 255
    14c0:	f9 e6       	ldi	r31, 0x69	; 105
    14c2:	28 e1       	ldi	r18, 0x18	; 24
    14c4:	e1 50       	subi	r30, 0x01	; 1
    14c6:	f0 40       	sbci	r31, 0x00	; 0
    14c8:	20 40       	sbci	r18, 0x00	; 0
    14ca:	e1 f7       	brne	.-8      	; 0x14c4 <main+0x5a>
    14cc:	00 c0       	rjmp	.+0      	; 0x14ce <main+0x64>
    14ce:	00 00       	nop
    14d0:	83 ec       	ldi	r24, 0xC3	; 195
    14d2:	92 e0       	ldi	r25, 0x02	; 2
    14d4:	0e 94 b9 00 	call	0x172	; 0x172 <UART_SENDSTR>
    14d8:	0e 94 e4 09 	call	0x13c8	; 0x13c8 <search_sensors>
    14dc:	b8 2e       	mov	r11, r24
    14de:	90 e0       	ldi	r25, 0x00	; 0
    14e0:	0e 94 d3 00 	call	0x1a6	; 0x1a6 <uart_put_int>
    14e4:	8f ee       	ldi	r24, 0xEF	; 239
    14e6:	92 e0       	ldi	r25, 0x02	; 2
    14e8:	0e 94 b9 00 	call	0x172	; 0x172 <UART_SENDSTR>
    14ec:	00 e0       	ldi	r16, 0x00	; 0
    14ee:	10 e0       	ldi	r17, 0x00	; 0
    14f0:	1e c0       	rjmp	.+60     	; 0x152e <main+0xc4>
    14f2:	8f e0       	ldi	r24, 0x0F	; 15
    14f4:	93 e0       	ldi	r25, 0x03	; 3
    14f6:	0e 94 b9 00 	call	0x172	; 0x172 <UART_SENDSTR>
    14fa:	78 01       	movw	r14, r16
    14fc:	0f 5f       	subi	r16, 0xFF	; 255
    14fe:	1f 4f       	sbci	r17, 0xFF	; 255
    1500:	c8 01       	movw	r24, r16
    1502:	0e 94 d3 00 	call	0x1a6	; 0x1a6 <uart_put_int>
    1506:	8d e3       	ldi	r24, 0x3D	; 61
    1508:	92 e0       	ldi	r25, 0x02	; 2
    150a:	0e 94 b9 00 	call	0x172	; 0x172 <UART_SENDSTR>
    150e:	c7 01       	movw	r24, r14
    1510:	63 e0       	ldi	r22, 0x03	; 3
    1512:	88 0f       	add	r24, r24
    1514:	99 1f       	adc	r25, r25
    1516:	6a 95       	dec	r22
    1518:	e1 f7       	brne	.-8      	; 0x1512 <main+0xa8>
    151a:	68 e0       	ldi	r22, 0x08	; 8
    151c:	70 e0       	ldi	r23, 0x00	; 0
    151e:	8a 53       	subi	r24, 0x3A	; 58
    1520:	9a 4f       	sbci	r25, 0xFA	; 250
    1522:	0e 94 80 04 	call	0x900	; 0x900 <DS18X20_show_id_uart>
    1526:	82 ee       	ldi	r24, 0xE2	; 226
    1528:	94 e0       	ldi	r25, 0x04	; 4
    152a:	0e 94 b9 00 	call	0x172	; 0x172 <UART_SENDSTR>
    152e:	0b 15       	cp	r16, r11
    1530:	00 f3       	brcs	.-64     	; 0x14f2 <main+0x88>
    1532:	06 ec       	ldi	r16, 0xC6	; 198
    1534:	15 e0       	ldi	r17, 0x05	; 5
    1536:	e1 2c       	mov	r14, r1
    1538:	f1 2c       	mov	r15, r1
    153a:	3c c0       	rjmp	.+120    	; 0x15b4 <main+0x14a>
    153c:	8a e1       	ldi	r24, 0x1A	; 26
    153e:	93 e0       	ldi	r25, 0x03	; 3
    1540:	0e 94 b9 00 	call	0x172	; 0x172 <UART_SENDSTR>
    1544:	67 01       	movw	r12, r14
    1546:	8f ef       	ldi	r24, 0xFF	; 255
    1548:	e8 1a       	sub	r14, r24
    154a:	f8 0a       	sbc	r15, r24
    154c:	c7 01       	movw	r24, r14
    154e:	0e 94 d3 00 	call	0x1a6	; 0x1a6 <uart_put_int>
    1552:	83 e2       	ldi	r24, 0x23	; 35
    1554:	93 e0       	ldi	r25, 0x03	; 3
    1556:	0e 94 b9 00 	call	0x172	; 0x172 <UART_SENDSTR>
    155a:	f8 01       	movw	r30, r16
    155c:	80 81       	ld	r24, Z
    155e:	80 31       	cpi	r24, 0x10	; 16
    1560:	19 f4       	brne	.+6      	; 0x1568 <main+0xfe>
    1562:	8a e2       	ldi	r24, 0x2A	; 42
    1564:	93 e0       	ldi	r25, 0x03	; 3
    1566:	07 c0       	rjmp	.+14     	; 0x1576 <main+0x10c>
    1568:	82 32       	cpi	r24, 0x22	; 34
    156a:	19 f4       	brne	.+6      	; 0x1572 <main+0x108>
    156c:	89 e3       	ldi	r24, 0x39	; 57
    156e:	93 e0       	ldi	r25, 0x03	; 3
    1570:	02 c0       	rjmp	.+4      	; 0x1576 <main+0x10c>
    1572:	80 e4       	ldi	r24, 0x40	; 64
    1574:	93 e0       	ldi	r25, 0x03	; 3
    1576:	0e 94 b9 00 	call	0x172	; 0x172 <UART_SENDSTR>
    157a:	88 e4       	ldi	r24, 0x48	; 72
    157c:	93 e0       	ldi	r25, 0x03	; 3
    157e:	0e 94 b9 00 	call	0x172	; 0x172 <UART_SENDSTR>
    1582:	c6 01       	movw	r24, r12
    1584:	53 e0       	ldi	r21, 0x03	; 3
    1586:	88 0f       	add	r24, r24
    1588:	99 1f       	adc	r25, r25
    158a:	5a 95       	dec	r21
    158c:	e1 f7       	brne	.-8      	; 0x1586 <main+0x11c>
    158e:	8a 53       	subi	r24, 0x3A	; 58
    1590:	9a 4f       	sbci	r25, 0xFA	; 250
    1592:	0e 94 03 05 	call	0xa06	; 0xa06 <DS18X20_get_power_status>
    1596:	81 11       	cpse	r24, r1
    1598:	03 c0       	rjmp	.+6      	; 0x15a0 <main+0x136>
    159a:	83 e5       	ldi	r24, 0x53	; 83
    159c:	93 e0       	ldi	r25, 0x03	; 3
    159e:	02 c0       	rjmp	.+4      	; 0x15a4 <main+0x13a>
    15a0:	8c e5       	ldi	r24, 0x5C	; 92
    15a2:	93 e0       	ldi	r25, 0x03	; 3
    15a4:	0e 94 b9 00 	call	0x172	; 0x172 <UART_SENDSTR>
    15a8:	87 e6       	ldi	r24, 0x67	; 103
    15aa:	93 e0       	ldi	r25, 0x03	; 3
    15ac:	0e 94 b9 00 	call	0x172	; 0x172 <UART_SENDSTR>
    15b0:	08 5f       	subi	r16, 0xF8	; 248
    15b2:	1f 4f       	sbci	r17, 0xFF	; 255
    15b4:	eb 14       	cp	r14, r11
    15b6:	10 f2       	brcs	.-124    	; 0x153c <main+0xd2>
    15b8:	bb 20       	and	r11, r11
    15ba:	09 f4       	brne	.+2      	; 0x15be <main+0x154>
    15bc:	54 c0       	rjmp	.+168    	; 0x1666 <main+0x1fc>
    15be:	82 e7       	ldi	r24, 0x72	; 114
    15c0:	93 e0       	ldi	r25, 0x03	; 3
    15c2:	0e 94 b9 00 	call	0x172	; 0x172 <UART_SENDSTR>
    15c6:	ce 01       	movw	r24, r28
    15c8:	01 96       	adiw	r24, 0x01	; 1
    15ca:	0e 94 98 09 	call	0x1330	; 0x1330 <th_tl_dump>
    15ce:	0b 81       	ldd	r16, Y+3	; 0x03
    15d0:	1c 81       	ldd	r17, Y+4	; 0x04
    15d2:	1f 5f       	subi	r17, 0xFF	; 255
    15d4:	0f 5f       	subi	r16, 0xFF	; 255
    15d6:	20 e6       	ldi	r18, 0x60	; 96
    15d8:	41 2f       	mov	r20, r17
    15da:	60 2f       	mov	r22, r16
    15dc:	86 ec       	ldi	r24, 0xC6	; 198
    15de:	95 e0       	ldi	r25, 0x05	; 5
    15e0:	0e 94 e1 08 	call	0x11c2	; 0x11c2 <DS18X20_write_scratchpad>
    15e4:	83 ea       	ldi	r24, 0xA3	; 163
    15e6:	93 e0       	ldi	r25, 0x03	; 3
    15e8:	0e 94 b9 00 	call	0x172	; 0x172 <UART_SENDSTR>
    15ec:	ce 01       	movw	r24, r28
    15ee:	01 96       	adiw	r24, 0x01	; 1
    15f0:	0e 94 98 09 	call	0x1330	; 0x1330 <th_tl_dump>
    15f4:	66 ec       	ldi	r22, 0xC6	; 198
    15f6:	75 e0       	ldi	r23, 0x05	; 5
    15f8:	80 e0       	ldi	r24, 0x00	; 0
    15fa:	0e 94 3c 09 	call	0x1278	; 0x1278 <DS18X20_scratchpad_to_eeprom>
    15fe:	89 ec       	ldi	r24, 0xC9	; 201
    1600:	93 e0       	ldi	r25, 0x03	; 3
    1602:	0e 94 b9 00 	call	0x172	; 0x172 <UART_SENDSTR>
    1606:	20 e6       	ldi	r18, 0x60	; 96
    1608:	40 e0       	ldi	r20, 0x00	; 0
    160a:	60 e0       	ldi	r22, 0x00	; 0
    160c:	86 ec       	ldi	r24, 0xC6	; 198
    160e:	95 e0       	ldi	r25, 0x05	; 5
    1610:	0e 94 e1 08 	call	0x11c2	; 0x11c2 <DS18X20_write_scratchpad>
    1614:	8f ee       	ldi	r24, 0xEF	; 239
    1616:	93 e0       	ldi	r25, 0x03	; 3
    1618:	0e 94 b9 00 	call	0x172	; 0x172 <UART_SENDSTR>
    161c:	ce 01       	movw	r24, r28
    161e:	01 96       	adiw	r24, 0x01	; 1
    1620:	0e 94 98 09 	call	0x1330	; 0x1330 <th_tl_dump>
    1624:	86 ec       	ldi	r24, 0xC6	; 198
    1626:	95 e0       	ldi	r25, 0x05	; 5
    1628:	0e 94 6d 09 	call	0x12da	; 0x12da <DS18X20_eeprom_to_scratchpad>
    162c:	82 e1       	ldi	r24, 0x12	; 18
    162e:	94 e0       	ldi	r25, 0x04	; 4
    1630:	0e 94 b9 00 	call	0x172	; 0x172 <UART_SENDSTR>
    1634:	49 e0       	ldi	r20, 0x09	; 9
    1636:	be 01       	movw	r22, r28
    1638:	6f 5f       	subi	r22, 0xFF	; 255
    163a:	7f 4f       	sbci	r23, 0xFF	; 255
    163c:	86 ec       	ldi	r24, 0xC6	; 198
    163e:	95 e0       	ldi	r25, 0x05	; 5
    1640:	0e 94 10 09 	call	0x1220	; 0x1220 <DS18X20_read_scratchpad>
    1644:	8b 81       	ldd	r24, Y+3	; 0x03
    1646:	08 13       	cpse	r16, r24
    1648:	06 c0       	rjmp	.+12     	; 0x1656 <main+0x1ec>
    164a:	8c 81       	ldd	r24, Y+4	; 0x04
    164c:	18 13       	cpse	r17, r24
    164e:	03 c0       	rjmp	.+6      	; 0x1656 <main+0x1ec>
    1650:	8d e3       	ldi	r24, 0x3D	; 61
    1652:	94 e0       	ldi	r25, 0x04	; 4
    1654:	02 c0       	rjmp	.+4      	; 0x165a <main+0x1f0>
    1656:	82 e5       	ldi	r24, 0x52	; 82
    1658:	94 e0       	ldi	r25, 0x04	; 4
    165a:	0e 94 b9 00 	call	0x172	; 0x172 <UART_SENDSTR>
    165e:	ce 01       	movw	r24, r28
    1660:	01 96       	adiw	r24, 0x01	; 1
    1662:	0e 94 98 09 	call	0x1330	; 0x1330 <th_tl_dump>
    1666:	ff ef       	ldi	r31, 0xFF	; 255
    1668:	23 e2       	ldi	r18, 0x23	; 35
    166a:	84 ef       	ldi	r24, 0xF4	; 244
    166c:	f1 50       	subi	r31, 0x01	; 1
    166e:	20 40       	sbci	r18, 0x00	; 0
    1670:	80 40       	sbci	r24, 0x00	; 0
    1672:	e1 f7       	brne	.-8      	; 0x166c <main+0x202>
    1674:	00 c0       	rjmp	.+0      	; 0x1676 <main+0x20c>
    1676:	00 00       	nop
    1678:	91 e0       	ldi	r25, 0x01	; 1
    167a:	b9 12       	cpse	r11, r25
    167c:	22 c0       	rjmp	.+68     	; 0x16c2 <main+0x258>
    167e:	82 e6       	ldi	r24, 0x62	; 98
    1680:	94 e0       	ldi	r25, 0x04	; 4
    1682:	0e 94 b9 00 	call	0x172	; 0x172 <UART_SENDSTR>
    1686:	10 91 c6 05 	lds	r17, 0x05C6
    168a:	60 e0       	ldi	r22, 0x00	; 0
    168c:	70 e0       	ldi	r23, 0x00	; 0
    168e:	80 e0       	ldi	r24, 0x00	; 0
    1690:	0e 94 19 05 	call	0xa32	; 0xa32 <DS18X20_start_meas>
    1694:	ef e7       	ldi	r30, 0x7F	; 127
    1696:	ff e4       	ldi	r31, 0x4F	; 79
    1698:	22 e1       	ldi	r18, 0x12	; 18
    169a:	e1 50       	subi	r30, 0x01	; 1
    169c:	f0 40       	sbci	r31, 0x00	; 0
    169e:	20 40       	sbci	r18, 0x00	; 0
    16a0:	e1 f7       	brne	.-8      	; 0x169a <main+0x230>
    16a2:	00 c0       	rjmp	.+0      	; 0x16a4 <main+0x23a>
    16a4:	00 00       	nop
    16a6:	be 01       	movw	r22, r28
    16a8:	61 5f       	subi	r22, 0xF1	; 241
    16aa:	7f 4f       	sbci	r23, 0xFF	; 255
    16ac:	81 2f       	mov	r24, r17
    16ae:	0e 94 8d 07 	call	0xf1a	; 0xf1a <DS18X20_read_decicelsius_single>
    16b2:	8f 85       	ldd	r24, Y+15	; 0x0f
    16b4:	98 89       	ldd	r25, Y+16	; 0x10
    16b6:	0e 94 b7 09 	call	0x136e	; 0x136e <uart_put_temp>
    16ba:	82 ee       	ldi	r24, 0xE2	; 226
    16bc:	94 e0       	ldi	r25, 0x04	; 4
    16be:	0e 94 b9 00 	call	0x172	; 0x172 <UART_SENDSTR>
    16c2:	aa 24       	eor	r10, r10
    16c4:	a3 94       	inc	r10
    16c6:	b1 10       	cpse	r11, r1
    16c8:	a1 2c       	mov	r10, r1
    16ca:	8d ea       	ldi	r24, 0xAD	; 173
    16cc:	94 e0       	ldi	r25, 0x04	; 4
    16ce:	0e 94 b9 00 	call	0x172	; 0x172 <UART_SENDSTR>
    16d2:	db 2c       	mov	r13, r11
    16d4:	41 c0       	rjmp	.+130    	; 0x1758 <main+0x2ee>
    16d6:	ed 2c       	mov	r14, r13
    16d8:	f1 2c       	mov	r15, r1
    16da:	87 01       	movw	r16, r14
    16dc:	43 e0       	ldi	r20, 0x03	; 3
    16de:	00 0f       	add	r16, r16
    16e0:	11 1f       	adc	r17, r17
    16e2:	4a 95       	dec	r20
    16e4:	e1 f7       	brne	.-8      	; 0x16de <main+0x274>
    16e6:	02 54       	subi	r16, 0x42	; 66
    16e8:	1a 4f       	sbci	r17, 0xFA	; 250
    16ea:	b8 01       	movw	r22, r16
    16ec:	80 e0       	ldi	r24, 0x00	; 0
    16ee:	0e 94 19 05 	call	0xa32	; 0xa32 <DS18X20_start_meas>
    16f2:	81 11       	cpse	r24, r1
    16f4:	2b c0       	rjmp	.+86     	; 0x174c <main+0x2e2>
    16f6:	8f e7       	ldi	r24, 0x7F	; 127
    16f8:	9f e4       	ldi	r25, 0x4F	; 79
    16fa:	e2 e1       	ldi	r30, 0x12	; 18
    16fc:	81 50       	subi	r24, 0x01	; 1
    16fe:	90 40       	sbci	r25, 0x00	; 0
    1700:	e0 40       	sbci	r30, 0x00	; 0
    1702:	e1 f7       	brne	.-8      	; 0x16fc <main+0x292>
    1704:	00 c0       	rjmp	.+0      	; 0x1706 <main+0x29c>
    1706:	00 00       	nop
    1708:	8a e1       	ldi	r24, 0x1A	; 26
    170a:	93 e0       	ldi	r25, 0x03	; 3
    170c:	0e 94 b9 00 	call	0x172	; 0x172 <UART_SENDSTR>
    1710:	c7 01       	movw	r24, r14
    1712:	0e 94 d3 00 	call	0x1a6	; 0x1a6 <uart_put_int>
    1716:	85 ee       	ldi	r24, 0xE5	; 229
    1718:	94 e0       	ldi	r25, 0x04	; 4
    171a:	0e 94 b9 00 	call	0x172	; 0x172 <UART_SENDSTR>
    171e:	be 01       	movw	r22, r28
    1720:	61 5f       	subi	r22, 0xF1	; 241
    1722:	7f 4f       	sbci	r23, 0xFF	; 255
    1724:	c8 01       	movw	r24, r16
    1726:	0e 94 57 07 	call	0xeae	; 0xeae <DS18X20_read_decicelsius>
    172a:	81 11       	cpse	r24, r1
    172c:	05 c0       	rjmp	.+10     	; 0x1738 <main+0x2ce>
    172e:	8f 85       	ldd	r24, Y+15	; 0x0f
    1730:	98 89       	ldd	r25, Y+16	; 0x10
    1732:	0e 94 b7 09 	call	0x136e	; 0x136e <uart_put_temp>
    1736:	05 c0       	rjmp	.+10     	; 0x1742 <main+0x2d8>
    1738:	89 ee       	ldi	r24, 0xE9	; 233
    173a:	94 e0       	ldi	r25, 0x04	; 4
    173c:	0e 94 b9 00 	call	0x172	; 0x172 <UART_SENDSTR>
    1740:	a3 94       	inc	r10
    1742:	82 ee       	ldi	r24, 0xE2	; 226
    1744:	94 e0       	ldi	r25, 0x04	; 4
    1746:	0e 94 b9 00 	call	0x172	; 0x172 <UART_SENDSTR>
    174a:	05 c0       	rjmp	.+10     	; 0x1756 <main+0x2ec>
    174c:	86 e0       	ldi	r24, 0x06	; 6
    174e:	95 e0       	ldi	r25, 0x05	; 5
    1750:	0e 94 b9 00 	call	0x172	; 0x172 <UART_SENDSTR>
    1754:	a3 94       	inc	r10
    1756:	da 94       	dec	r13
    1758:	d1 10       	cpse	r13, r1
    175a:	bd cf       	rjmp	.-134    	; 0x16d6 <main+0x26c>
    175c:	8a e2       	ldi	r24, 0x2A	; 42
    175e:	95 e0       	ldi	r25, 0x05	; 5
    1760:	0e 94 b9 00 	call	0x172	; 0x172 <UART_SENDSTR>
    1764:	60 e0       	ldi	r22, 0x00	; 0
    1766:	70 e0       	ldi	r23, 0x00	; 0
    1768:	80 e0       	ldi	r24, 0x00	; 0
    176a:	0e 94 19 05 	call	0xa32	; 0xa32 <DS18X20_start_meas>
    176e:	81 11       	cpse	r24, r1
    1770:	84 c0       	rjmp	.+264    	; 0x187a <main+0x410>
    1772:	ff e7       	ldi	r31, 0x7F	; 127
    1774:	2f e4       	ldi	r18, 0x4F	; 79
    1776:	82 e1       	ldi	r24, 0x12	; 18
    1778:	f1 50       	subi	r31, 0x01	; 1
    177a:	20 40       	sbci	r18, 0x00	; 0
    177c:	80 40       	sbci	r24, 0x00	; 0
    177e:	e1 f7       	brne	.-8      	; 0x1778 <main+0x30e>
    1780:	00 c0       	rjmp	.+0      	; 0x1782 <main+0x318>
    1782:	00 00       	nop
    1784:	e1 2c       	mov	r14, r1
    1786:	f1 2c       	mov	r15, r1
    1788:	2c c0       	rjmp	.+88     	; 0x17e2 <main+0x378>
    178a:	8a e1       	ldi	r24, 0x1A	; 26
    178c:	93 e0       	ldi	r25, 0x03	; 3
    178e:	0e 94 b9 00 	call	0x172	; 0x172 <UART_SENDSTR>
    1792:	87 01       	movw	r16, r14
    1794:	9f ef       	ldi	r25, 0xFF	; 255
    1796:	e9 1a       	sub	r14, r25
    1798:	f9 0a       	sbc	r15, r25
    179a:	c7 01       	movw	r24, r14
    179c:	0e 94 d3 00 	call	0x1a6	; 0x1a6 <uart_put_int>
    17a0:	85 ee       	ldi	r24, 0xE5	; 229
    17a2:	94 e0       	ldi	r25, 0x04	; 4
    17a4:	0e 94 b9 00 	call	0x172	; 0x172 <UART_SENDSTR>
    17a8:	c8 01       	movw	r24, r16
    17aa:	33 e0       	ldi	r19, 0x03	; 3
    17ac:	88 0f       	add	r24, r24
    17ae:	99 1f       	adc	r25, r25
    17b0:	3a 95       	dec	r19
    17b2:	e1 f7       	brne	.-8      	; 0x17ac <main+0x342>
    17b4:	be 01       	movw	r22, r28
    17b6:	61 5f       	subi	r22, 0xF1	; 241
    17b8:	7f 4f       	sbci	r23, 0xFF	; 255
    17ba:	8a 53       	subi	r24, 0x3A	; 58
    17bc:	9a 4f       	sbci	r25, 0xFA	; 250
    17be:	0e 94 57 07 	call	0xeae	; 0xeae <DS18X20_read_decicelsius>
    17c2:	81 11       	cpse	r24, r1
    17c4:	05 c0       	rjmp	.+10     	; 0x17d0 <main+0x366>
    17c6:	8f 85       	ldd	r24, Y+15	; 0x0f
    17c8:	98 89       	ldd	r25, Y+16	; 0x10
    17ca:	0e 94 b7 09 	call	0x136e	; 0x136e <uart_put_temp>
    17ce:	05 c0       	rjmp	.+10     	; 0x17da <main+0x370>
    17d0:	89 ee       	ldi	r24, 0xE9	; 233
    17d2:	94 e0       	ldi	r25, 0x04	; 4
    17d4:	0e 94 b9 00 	call	0x172	; 0x172 <UART_SENDSTR>
    17d8:	a3 94       	inc	r10
    17da:	82 ee       	ldi	r24, 0xE2	; 226
    17dc:	94 e0       	ldi	r25, 0x04	; 4
    17de:	0e 94 b9 00 	call	0x172	; 0x172 <UART_SENDSTR>
    17e2:	eb 14       	cp	r14, r11
    17e4:	90 f2       	brcs	.-92     	; 0x178a <main+0x320>
    17e6:	00 e0       	ldi	r16, 0x00	; 0
    17e8:	10 e0       	ldi	r17, 0x00	; 0
    17ea:	43 c0       	rjmp	.+134    	; 0x1872 <main+0x408>
    17ec:	8a e1       	ldi	r24, 0x1A	; 26
    17ee:	93 e0       	ldi	r25, 0x03	; 3
    17f0:	0e 94 b9 00 	call	0x172	; 0x172 <UART_SENDSTR>
    17f4:	78 01       	movw	r14, r16
    17f6:	0f 5f       	subi	r16, 0xFF	; 255
    17f8:	1f 4f       	sbci	r17, 0xFF	; 255
    17fa:	c8 01       	movw	r24, r16
    17fc:	0e 94 d3 00 	call	0x1a6	; 0x1a6 <uart_put_int>
    1800:	85 ee       	ldi	r24, 0xE5	; 229
    1802:	94 e0       	ldi	r25, 0x04	; 4
    1804:	0e 94 b9 00 	call	0x172	; 0x172 <UART_SENDSTR>
    1808:	c7 01       	movw	r24, r14
    180a:	23 e0       	ldi	r18, 0x03	; 3
    180c:	88 0f       	add	r24, r24
    180e:	99 1f       	adc	r25, r25
    1810:	2a 95       	dec	r18
    1812:	e1 f7       	brne	.-8      	; 0x180c <main+0x3a2>
    1814:	be 01       	movw	r22, r28
    1816:	65 5f       	subi	r22, 0xF5	; 245
    1818:	7f 4f       	sbci	r23, 0xFF	; 255
    181a:	8a 53       	subi	r24, 0x3A	; 58
    181c:	9a 4f       	sbci	r25, 0xFA	; 250
    181e:	0e 94 bf 07 	call	0xf7e	; 0xf7e <DS18X20_read_maxres>
    1822:	81 11       	cpse	r24, r1
    1824:	1d c0       	rjmp	.+58     	; 0x1860 <main+0x3f6>
    1826:	cb 84       	ldd	r12, Y+11	; 0x0b
    1828:	dc 84       	ldd	r13, Y+12	; 0x0c
    182a:	ed 84       	ldd	r14, Y+13	; 0x0d
    182c:	fe 84       	ldd	r15, Y+14	; 0x0e
    182e:	c7 01       	movw	r24, r14
    1830:	b6 01       	movw	r22, r12
    1832:	0e 94 f1 00 	call	0x1e2	; 0x1e2 <uart_put_longint>
    1836:	82 e6       	ldi	r24, 0x62	; 98
    1838:	95 e0       	ldi	r25, 0x05	; 5
    183a:	0e 94 b9 00 	call	0x172	; 0x172 <UART_SENDSTR>
    183e:	2a e0       	ldi	r18, 0x0A	; 10
    1840:	ae 01       	movw	r20, r28
    1842:	4f 5f       	subi	r20, 0xFF	; 255
    1844:	5f 4f       	sbci	r21, 0xFF	; 255
    1846:	c7 01       	movw	r24, r14
    1848:	b6 01       	movw	r22, r12
    184a:	0e 94 2b 08 	call	0x1056	; 0x1056 <DS18X20_format_from_maxres>
    184e:	ce 01       	movw	r24, r28
    1850:	01 96       	adiw	r24, 0x01	; 1
    1852:	0e 94 b9 00 	call	0x172	; 0x172 <UART_SENDSTR>
    1856:	8f e4       	ldi	r24, 0x4F	; 79
    1858:	92 e0       	ldi	r25, 0x02	; 2
    185a:	0e 94 b9 00 	call	0x172	; 0x172 <UART_SENDSTR>
    185e:	05 c0       	rjmp	.+10     	; 0x186a <main+0x400>
    1860:	89 ee       	ldi	r24, 0xE9	; 233
    1862:	94 e0       	ldi	r25, 0x04	; 4
    1864:	0e 94 b9 00 	call	0x172	; 0x172 <UART_SENDSTR>
    1868:	a3 94       	inc	r10
    186a:	82 ee       	ldi	r24, 0xE2	; 226
    186c:	94 e0       	ldi	r25, 0x04	; 4
    186e:	0e 94 b9 00 	call	0x172	; 0x172 <UART_SENDSTR>
    1872:	0b 15       	cp	r16, r11
    1874:	08 f4       	brcc	.+2      	; 0x1878 <main+0x40e>
    1876:	ba cf       	rjmp	.-140    	; 0x17ec <main+0x382>
    1878:	05 c0       	rjmp	.+10     	; 0x1884 <main+0x41a>
    187a:	86 e0       	ldi	r24, 0x06	; 6
    187c:	95 e0       	ldi	r25, 0x05	; 5
    187e:	0e 94 b9 00 	call	0x172	; 0x172 <UART_SENDSTR>
    1882:	a3 94       	inc	r10
    1884:	8b e6       	ldi	r24, 0x6B	; 107
    1886:	95 e0       	ldi	r25, 0x05	; 5
    1888:	0e 94 b9 00 	call	0x172	; 0x172 <UART_SENDSTR>
    188c:	60 e0       	ldi	r22, 0x00	; 0
    188e:	70 e0       	ldi	r23, 0x00	; 0
    1890:	80 e0       	ldi	r24, 0x00	; 0
    1892:	0e 94 19 05 	call	0xa32	; 0xa32 <DS18X20_start_meas>
    1896:	ef e7       	ldi	r30, 0x7F	; 127
    1898:	ff e4       	ldi	r31, 0x4F	; 79
    189a:	22 e1       	ldi	r18, 0x12	; 18
    189c:	e1 50       	subi	r30, 0x01	; 1
    189e:	f0 40       	sbci	r31, 0x00	; 0
    18a0:	20 40       	sbci	r18, 0x00	; 0
    18a2:	e1 f7       	brne	.-8      	; 0x189c <main+0x432>
    18a4:	00 c0       	rjmp	.+0      	; 0x18a6 <main+0x43c>
    18a6:	00 00       	nop
    18a8:	0e 94 c8 05 	call	0xb90	; 0xb90 <DS18X20_read_meas_all_verbose>
    18ac:	aa 20       	and	r10, r10
    18ae:	71 f0       	breq	.+28     	; 0x18cc <main+0x462>
    18b0:	8e e7       	ldi	r24, 0x7E	; 126
    18b2:	95 e0       	ldi	r25, 0x05	; 5
    18b4:	0e 94 b9 00 	call	0x172	; 0x172 <UART_SENDSTR>
    18b8:	0e 94 e4 09 	call	0x13c8	; 0x13c8 <search_sensors>
    18bc:	b8 2e       	mov	r11, r24
    18be:	90 e0       	ldi	r25, 0x00	; 0
    18c0:	0e 94 d3 00 	call	0x1a6	; 0x1a6 <uart_put_int>
    18c4:	80 ea       	ldi	r24, 0xA0	; 160
    18c6:	95 e0       	ldi	r25, 0x05	; 5
    18c8:	0e 94 b9 00 	call	0x172	; 0x172 <UART_SENDSTR>
    18cc:	8f ef       	ldi	r24, 0xFF	; 255
    18ce:	9d e3       	ldi	r25, 0x3D	; 61
    18d0:	e9 e4       	ldi	r30, 0x49	; 73
    18d2:	81 50       	subi	r24, 0x01	; 1
    18d4:	90 40       	sbci	r25, 0x00	; 0
    18d6:	e0 40       	sbci	r30, 0x00	; 0
    18d8:	e1 f7       	brne	.-8      	; 0x18d2 <main+0x468>
    18da:	00 c0       	rjmp	.+0      	; 0x18dc <main+0x472>
    18dc:	00 00       	nop
    18de:	f1 ce       	rjmp	.-542    	; 0x16c2 <main+0x258>

000018e0 <ow_input_pin_state>:
    18e0:	e0 91 f1 05 	lds	r30, 0x05F1
    18e4:	f0 91 f2 05 	lds	r31, 0x05F2
    18e8:	90 81       	ld	r25, Z
    18ea:	80 91 f0 05 	lds	r24, 0x05F0
    18ee:	89 23       	and	r24, r25
    18f0:	08 95       	ret

000018f2 <ow_parasite_enable>:
    18f2:	e0 91 ee 05 	lds	r30, 0x05EE
    18f6:	f0 91 ef 05 	lds	r31, 0x05EF
    18fa:	80 81       	ld	r24, Z
    18fc:	90 91 f0 05 	lds	r25, 0x05F0
    1900:	89 2b       	or	r24, r25
    1902:	80 83       	st	Z, r24
    1904:	e0 91 f3 05 	lds	r30, 0x05F3
    1908:	f0 91 f4 05 	lds	r31, 0x05F4
    190c:	80 81       	ld	r24, Z
    190e:	90 91 f0 05 	lds	r25, 0x05F0
    1912:	89 2b       	or	r24, r25
    1914:	80 83       	st	Z, r24
    1916:	08 95       	ret

00001918 <ow_bit_io_intern>:
    1918:	1f 93       	push	r17
    191a:	cf 93       	push	r28
    191c:	df 93       	push	r29
    191e:	1f 92       	push	r1
    1920:	cd b7       	in	r28, 0x3d	; 61
    1922:	de b7       	in	r29, 0x3e	; 62
    1924:	1f b7       	in	r17, 0x3f	; 63
    1926:	f8 94       	cli
    1928:	e0 91 f3 05 	lds	r30, 0x05F3
    192c:	f0 91 f4 05 	lds	r31, 0x05F4
    1930:	90 81       	ld	r25, Z
    1932:	20 91 f0 05 	lds	r18, 0x05F0
    1936:	92 2b       	or	r25, r18
    1938:	90 83       	st	Z, r25
    193a:	95 e0       	ldi	r25, 0x05	; 5
    193c:	9a 95       	dec	r25
    193e:	f1 f7       	brne	.-4      	; 0x193c <ow_bit_io_intern+0x24>
    1940:	00 00       	nop
    1942:	88 23       	and	r24, r24
    1944:	51 f0       	breq	.+20     	; 0x195a <ow_bit_io_intern+0x42>
    1946:	e0 91 f3 05 	lds	r30, 0x05F3
    194a:	f0 91 f4 05 	lds	r31, 0x05F4
    194e:	20 81       	ld	r18, Z
    1950:	90 91 f0 05 	lds	r25, 0x05F0
    1954:	90 95       	com	r25
    1956:	92 23       	and	r25, r18
    1958:	90 83       	st	Z, r25
    195a:	e0 e2       	ldi	r30, 0x20	; 32
    195c:	ea 95       	dec	r30
    195e:	f1 f7       	brne	.-4      	; 0x195c <ow_bit_io_intern+0x44>
    1960:	e0 91 f1 05 	lds	r30, 0x05F1
    1964:	f0 91 f2 05 	lds	r31, 0x05F2
    1968:	90 81       	ld	r25, Z
    196a:	20 91 f0 05 	lds	r18, 0x05F0
    196e:	92 23       	and	r25, r18
    1970:	09 f4       	brne	.+2      	; 0x1974 <ow_bit_io_intern+0x5c>
    1972:	80 e0       	ldi	r24, 0x00	; 0
    1974:	f5 e7       	ldi	r31, 0x75	; 117
    1976:	fa 95       	dec	r31
    1978:	f1 f7       	brne	.-4      	; 0x1976 <ow_bit_io_intern+0x5e>
    197a:	00 00       	nop
    197c:	e0 91 f3 05 	lds	r30, 0x05F3
    1980:	f0 91 f4 05 	lds	r31, 0x05F4
    1984:	20 81       	ld	r18, Z
    1986:	90 91 f0 05 	lds	r25, 0x05F0
    198a:	90 95       	com	r25
    198c:	92 23       	and	r25, r18
    198e:	90 83       	st	Z, r25
    1990:	66 23       	and	r22, r22
    1992:	21 f0       	breq	.+8      	; 0x199c <ow_bit_io_intern+0x84>
    1994:	89 83       	std	Y+1, r24	; 0x01
    1996:	0e 94 79 0c 	call	0x18f2	; 0x18f2 <ow_parasite_enable>
    199a:	89 81       	ldd	r24, Y+1	; 0x01
    199c:	1f bf       	out	0x3f, r17	; 63
    199e:	9a e1       	ldi	r25, 0x1A	; 26
    19a0:	9a 95       	dec	r25
    19a2:	f1 f7       	brne	.-4      	; 0x19a0 <ow_bit_io_intern+0x88>
    19a4:	00 c0       	rjmp	.+0      	; 0x19a6 <ow_bit_io_intern+0x8e>
    19a6:	0f 90       	pop	r0
    19a8:	df 91       	pop	r29
    19aa:	cf 91       	pop	r28
    19ac:	1f 91       	pop	r17
    19ae:	08 95       	ret

000019b0 <ow_parasite_disable>:
    19b0:	e0 91 f3 05 	lds	r30, 0x05F3
    19b4:	f0 91 f4 05 	lds	r31, 0x05F4
    19b8:	90 81       	ld	r25, Z
    19ba:	80 91 f0 05 	lds	r24, 0x05F0
    19be:	80 95       	com	r24
    19c0:	89 23       	and	r24, r25
    19c2:	80 83       	st	Z, r24
    19c4:	e0 91 ee 05 	lds	r30, 0x05EE
    19c8:	f0 91 ef 05 	lds	r31, 0x05EF
    19cc:	90 81       	ld	r25, Z
    19ce:	80 91 f0 05 	lds	r24, 0x05F0
    19d2:	80 95       	com	r24
    19d4:	89 23       	and	r24, r25
    19d6:	80 83       	st	Z, r24
    19d8:	08 95       	ret

000019da <ow_reset>:
    19da:	e0 91 ee 05 	lds	r30, 0x05EE
    19de:	f0 91 ef 05 	lds	r31, 0x05EF
    19e2:	90 81       	ld	r25, Z
    19e4:	80 91 f0 05 	lds	r24, 0x05F0
    19e8:	80 95       	com	r24
    19ea:	89 23       	and	r24, r25
    19ec:	80 83       	st	Z, r24
    19ee:	e0 91 f3 05 	lds	r30, 0x05F3
    19f2:	f0 91 f4 05 	lds	r31, 0x05F4
    19f6:	80 81       	ld	r24, Z
    19f8:	90 91 f0 05 	lds	r25, 0x05F0
    19fc:	89 2b       	or	r24, r25
    19fe:	80 83       	st	Z, r24
    1a00:	8f eb       	ldi	r24, 0xBF	; 191
    1a02:	93 e0       	ldi	r25, 0x03	; 3
    1a04:	01 97       	sbiw	r24, 0x01	; 1
    1a06:	f1 f7       	brne	.-4      	; 0x1a04 <ow_reset+0x2a>
    1a08:	00 c0       	rjmp	.+0      	; 0x1a0a <ow_reset+0x30>
    1a0a:	00 00       	nop
    1a0c:	9f b7       	in	r25, 0x3f	; 63
    1a0e:	f8 94       	cli
    1a10:	e0 91 f3 05 	lds	r30, 0x05F3
    1a14:	f0 91 f4 05 	lds	r31, 0x05F4
    1a18:	20 81       	ld	r18, Z
    1a1a:	80 91 f0 05 	lds	r24, 0x05F0
    1a1e:	80 95       	com	r24
    1a20:	82 23       	and	r24, r18
    1a22:	80 83       	st	Z, r24
    1a24:	ea ea       	ldi	r30, 0xAA	; 170
    1a26:	ea 95       	dec	r30
    1a28:	f1 f7       	brne	.-4      	; 0x1a26 <ow_reset+0x4c>
    1a2a:	00 c0       	rjmp	.+0      	; 0x1a2c <ow_reset+0x52>
    1a2c:	e0 91 f1 05 	lds	r30, 0x05F1
    1a30:	f0 91 f2 05 	lds	r31, 0x05F2
    1a34:	20 81       	ld	r18, Z
    1a36:	80 91 f0 05 	lds	r24, 0x05F0
    1a3a:	9f bf       	out	0x3f, r25	; 63
    1a3c:	ef e3       	ldi	r30, 0x3F	; 63
    1a3e:	f3 e0       	ldi	r31, 0x03	; 3
    1a40:	31 97       	sbiw	r30, 0x01	; 1
    1a42:	f1 f7       	brne	.-4      	; 0x1a40 <ow_reset+0x66>
    1a44:	00 c0       	rjmp	.+0      	; 0x1a46 <ow_reset+0x6c>
    1a46:	00 00       	nop
    1a48:	e0 91 f1 05 	lds	r30, 0x05F1
    1a4c:	f0 91 f2 05 	lds	r31, 0x05F2
    1a50:	90 81       	ld	r25, Z
    1a52:	30 91 f0 05 	lds	r19, 0x05F0
    1a56:	93 23       	and	r25, r19
    1a58:	11 f0       	breq	.+4      	; 0x1a5e <ow_reset+0x84>
    1a5a:	82 23       	and	r24, r18
    1a5c:	08 95       	ret
    1a5e:	81 e0       	ldi	r24, 0x01	; 1
    1a60:	08 95       	ret

00001a62 <ow_set_bus>:
    1a62:	50 93 f4 05 	sts	0x05F4, r21
    1a66:	40 93 f3 05 	sts	0x05F3, r20
    1a6a:	70 93 ef 05 	sts	0x05EF, r23
    1a6e:	60 93 ee 05 	sts	0x05EE, r22
    1a72:	90 93 f2 05 	sts	0x05F2, r25
    1a76:	80 93 f1 05 	sts	0x05F1, r24
    1a7a:	81 e0       	ldi	r24, 0x01	; 1
    1a7c:	90 e0       	ldi	r25, 0x00	; 0
    1a7e:	01 c0       	rjmp	.+2      	; 0x1a82 <ow_set_bus+0x20>
    1a80:	88 0f       	add	r24, r24
    1a82:	2a 95       	dec	r18
    1a84:	ea f7       	brpl	.-6      	; 0x1a80 <ow_set_bus+0x1e>
    1a86:	80 93 f0 05 	sts	0x05F0, r24
    1a8a:	0c 94 ed 0c 	jmp	0x19da	; 0x19da <ow_reset>

00001a8e <ow_bit_io>:
    1a8e:	60 e0       	ldi	r22, 0x00	; 0
    1a90:	81 70       	andi	r24, 0x01	; 1
    1a92:	0c 94 8c 0c 	jmp	0x1918	; 0x1918 <ow_bit_io_intern>

00001a96 <ow_byte_wr>:
    1a96:	cf 93       	push	r28
    1a98:	df 93       	push	r29
    1a9a:	c8 2f       	mov	r28, r24
    1a9c:	d8 e0       	ldi	r29, 0x08	; 8
    1a9e:	8c 2f       	mov	r24, r28
    1aa0:	81 70       	andi	r24, 0x01	; 1
    1aa2:	0e 94 47 0d 	call	0x1a8e	; 0x1a8e <ow_bit_io>
    1aa6:	c6 95       	lsr	r28
    1aa8:	81 11       	cpse	r24, r1
    1aaa:	c0 68       	ori	r28, 0x80	; 128
    1aac:	d1 50       	subi	r29, 0x01	; 1
    1aae:	b9 f7       	brne	.-18     	; 0x1a9e <ow_byte_wr+0x8>
    1ab0:	8c 2f       	mov	r24, r28
    1ab2:	df 91       	pop	r29
    1ab4:	cf 91       	pop	r28
    1ab6:	08 95       	ret

00001ab8 <ow_byte_wr_with_parasite_enable>:
    1ab8:	cf 93       	push	r28
    1aba:	df 93       	push	r29
    1abc:	c8 2f       	mov	r28, r24
    1abe:	d8 e0       	ldi	r29, 0x08	; 8
    1ac0:	8c 2f       	mov	r24, r28
    1ac2:	81 70       	andi	r24, 0x01	; 1
    1ac4:	d1 30       	cpi	r29, 0x01	; 1
    1ac6:	11 f0       	breq	.+4      	; 0x1acc <ow_byte_wr_with_parasite_enable+0x14>
    1ac8:	60 e0       	ldi	r22, 0x00	; 0
    1aca:	01 c0       	rjmp	.+2      	; 0x1ace <ow_byte_wr_with_parasite_enable+0x16>
    1acc:	61 e0       	ldi	r22, 0x01	; 1
    1ace:	0e 94 8c 0c 	call	0x1918	; 0x1918 <ow_bit_io_intern>
    1ad2:	c6 95       	lsr	r28
    1ad4:	81 11       	cpse	r24, r1
    1ad6:	c0 68       	ori	r28, 0x80	; 128
    1ad8:	d1 50       	subi	r29, 0x01	; 1
    1ada:	91 f7       	brne	.-28     	; 0x1ac0 <ow_byte_wr_with_parasite_enable+0x8>
    1adc:	8c 2f       	mov	r24, r28
    1ade:	df 91       	pop	r29
    1ae0:	cf 91       	pop	r28
    1ae2:	08 95       	ret

00001ae4 <ow_command_intern>:
    1ae4:	ef 92       	push	r14
    1ae6:	ff 92       	push	r15
    1ae8:	0f 93       	push	r16
    1aea:	1f 93       	push	r17
    1aec:	cf 93       	push	r28
    1aee:	df 93       	push	r29
    1af0:	f8 2e       	mov	r15, r24
    1af2:	eb 01       	movw	r28, r22
    1af4:	e4 2e       	mov	r14, r20
    1af6:	0e 94 ed 0c 	call	0x19da	; 0x19da <ow_reset>
    1afa:	20 97       	sbiw	r28, 0x00	; 0
    1afc:	69 f0       	breq	.+26     	; 0x1b18 <ow_command_intern+0x34>
    1afe:	85 e5       	ldi	r24, 0x55	; 85
    1b00:	0e 94 4b 0d 	call	0x1a96	; 0x1a96 <ow_byte_wr>
    1b04:	8e 01       	movw	r16, r28
    1b06:	08 5f       	subi	r16, 0xF8	; 248
    1b08:	1f 4f       	sbci	r17, 0xFF	; 255
    1b0a:	89 91       	ld	r24, Y+
    1b0c:	0e 94 4b 0d 	call	0x1a96	; 0x1a96 <ow_byte_wr>
    1b10:	c0 17       	cp	r28, r16
    1b12:	d1 07       	cpc	r29, r17
    1b14:	d1 f7       	brne	.-12     	; 0x1b0a <ow_command_intern+0x26>
    1b16:	03 c0       	rjmp	.+6      	; 0x1b1e <ow_command_intern+0x3a>
    1b18:	8c ec       	ldi	r24, 0xCC	; 204
    1b1a:	0e 94 4b 0d 	call	0x1a96	; 0x1a96 <ow_byte_wr>
    1b1e:	8f 2d       	mov	r24, r15
    1b20:	ee 20       	and	r14, r14
    1b22:	41 f0       	breq	.+16     	; 0x1b34 <ow_command_intern+0x50>
    1b24:	df 91       	pop	r29
    1b26:	cf 91       	pop	r28
    1b28:	1f 91       	pop	r17
    1b2a:	0f 91       	pop	r16
    1b2c:	ff 90       	pop	r15
    1b2e:	ef 90       	pop	r14
    1b30:	0c 94 5c 0d 	jmp	0x1ab8	; 0x1ab8 <ow_byte_wr_with_parasite_enable>
    1b34:	df 91       	pop	r29
    1b36:	cf 91       	pop	r28
    1b38:	1f 91       	pop	r17
    1b3a:	0f 91       	pop	r16
    1b3c:	ff 90       	pop	r15
    1b3e:	ef 90       	pop	r14
    1b40:	0c 94 4b 0d 	jmp	0x1a96	; 0x1a96 <ow_byte_wr>

00001b44 <ow_byte_rd>:
    1b44:	8f ef       	ldi	r24, 0xFF	; 255
    1b46:	0c 94 4b 0d 	jmp	0x1a96	; 0x1a96 <ow_byte_wr>

00001b4a <ow_rom_search>:
    1b4a:	df 92       	push	r13
    1b4c:	ef 92       	push	r14
    1b4e:	ff 92       	push	r15
    1b50:	0f 93       	push	r16
    1b52:	1f 93       	push	r17
    1b54:	cf 93       	push	r28
    1b56:	df 93       	push	r29
    1b58:	e8 2e       	mov	r14, r24
    1b5a:	eb 01       	movw	r28, r22
    1b5c:	0e 94 ed 0c 	call	0x19da	; 0x19da <ow_reset>
    1b60:	81 11       	cpse	r24, r1
    1b62:	31 c0       	rjmp	.+98     	; 0x1bc6 <ow_rom_search+0x7c>
    1b64:	80 ef       	ldi	r24, 0xF0	; 240
    1b66:	0e 94 4b 0d 	call	0x1a96	; 0x1a96 <ow_byte_wr>
    1b6a:	f1 2c       	mov	r15, r1
    1b6c:	10 e4       	ldi	r17, 0x40	; 64
    1b6e:	98 ef       	ldi	r25, 0xF8	; 248
    1b70:	d9 2e       	mov	r13, r25
    1b72:	d1 0e       	add	r13, r17
    1b74:	81 e0       	ldi	r24, 0x01	; 1
    1b76:	0e 94 47 0d 	call	0x1a8e	; 0x1a8e <ow_bit_io>
    1b7a:	08 2f       	mov	r16, r24
    1b7c:	81 e0       	ldi	r24, 0x01	; 1
    1b7e:	0e 94 47 0d 	call	0x1a8e	; 0x1a8e <ow_bit_io>
    1b82:	88 23       	and	r24, r24
    1b84:	19 f0       	breq	.+6      	; 0x1b8c <ow_rom_search+0x42>
    1b86:	00 23       	and	r16, r16
    1b88:	69 f0       	breq	.+26     	; 0x1ba4 <ow_rom_search+0x5a>
    1b8a:	20 c0       	rjmp	.+64     	; 0x1bcc <ow_rom_search+0x82>
    1b8c:	01 11       	cpse	r16, r1
    1b8e:	0a c0       	rjmp	.+20     	; 0x1ba4 <ow_rom_search+0x5a>
    1b90:	1e 15       	cp	r17, r14
    1b92:	30 f0       	brcs	.+12     	; 0x1ba0 <ow_rom_search+0x56>
    1b94:	88 81       	ld	r24, Y
    1b96:	80 ff       	sbrs	r24, 0
    1b98:	05 c0       	rjmp	.+10     	; 0x1ba4 <ow_rom_search+0x5a>
    1b9a:	e1 12       	cpse	r14, r17
    1b9c:	01 c0       	rjmp	.+2      	; 0x1ba0 <ow_rom_search+0x56>
    1b9e:	02 c0       	rjmp	.+4      	; 0x1ba4 <ow_rom_search+0x5a>
    1ba0:	f1 2e       	mov	r15, r17
    1ba2:	01 e0       	ldi	r16, 0x01	; 1
    1ba4:	80 2f       	mov	r24, r16
    1ba6:	0e 94 47 0d 	call	0x1a8e	; 0x1a8e <ow_bit_io>
    1baa:	98 81       	ld	r25, Y
    1bac:	96 95       	lsr	r25
    1bae:	01 11       	cpse	r16, r1
    1bb0:	01 c0       	rjmp	.+2      	; 0x1bb4 <ow_rom_search+0x6a>
    1bb2:	01 c0       	rjmp	.+2      	; 0x1bb6 <ow_rom_search+0x6c>
    1bb4:	90 68       	ori	r25, 0x80	; 128
    1bb6:	98 83       	st	Y, r25
    1bb8:	11 50       	subi	r17, 0x01	; 1
    1bba:	1d 11       	cpse	r17, r13
    1bbc:	db cf       	rjmp	.-74     	; 0x1b74 <ow_rom_search+0x2a>
    1bbe:	21 96       	adiw	r28, 0x01	; 1
    1bc0:	11 11       	cpse	r17, r1
    1bc2:	d5 cf       	rjmp	.-86     	; 0x1b6e <ow_rom_search+0x24>
    1bc4:	05 c0       	rjmp	.+10     	; 0x1bd0 <ow_rom_search+0x86>
    1bc6:	ff 24       	eor	r15, r15
    1bc8:	fa 94       	dec	r15
    1bca:	02 c0       	rjmp	.+4      	; 0x1bd0 <ow_rom_search+0x86>
    1bcc:	8e ef       	ldi	r24, 0xFE	; 254
    1bce:	f8 2e       	mov	r15, r24
    1bd0:	8f 2d       	mov	r24, r15
    1bd2:	df 91       	pop	r29
    1bd4:	cf 91       	pop	r28
    1bd6:	1f 91       	pop	r17
    1bd8:	0f 91       	pop	r16
    1bda:	ff 90       	pop	r15
    1bdc:	ef 90       	pop	r14
    1bde:	df 90       	pop	r13
    1be0:	08 95       	ret

00001be2 <ow_command>:
    1be2:	40 e0       	ldi	r20, 0x00	; 0
    1be4:	0c 94 72 0d 	jmp	0x1ae4	; 0x1ae4 <ow_command_intern>

00001be8 <ow_command_with_parasite_enable>:
    1be8:	41 e0       	ldi	r20, 0x01	; 1
    1bea:	0c 94 72 0d 	jmp	0x1ae4	; 0x1ae4 <ow_command_intern>

00001bee <__divmodhi4>:
    1bee:	97 fb       	bst	r25, 7
    1bf0:	07 2e       	mov	r0, r23
    1bf2:	16 f4       	brtc	.+4      	; 0x1bf8 <__divmodhi4+0xa>
    1bf4:	00 94       	com	r0
    1bf6:	07 d0       	rcall	.+14     	; 0x1c06 <__divmodhi4_neg1>
    1bf8:	77 fd       	sbrc	r23, 7
    1bfa:	09 d0       	rcall	.+18     	; 0x1c0e <__divmodhi4_neg2>
    1bfc:	0e 94 33 0e 	call	0x1c66	; 0x1c66 <__udivmodhi4>
    1c00:	07 fc       	sbrc	r0, 7
    1c02:	05 d0       	rcall	.+10     	; 0x1c0e <__divmodhi4_neg2>
    1c04:	3e f4       	brtc	.+14     	; 0x1c14 <__divmodhi4_exit>

00001c06 <__divmodhi4_neg1>:
    1c06:	90 95       	com	r25
    1c08:	81 95       	neg	r24
    1c0a:	9f 4f       	sbci	r25, 0xFF	; 255
    1c0c:	08 95       	ret

00001c0e <__divmodhi4_neg2>:
    1c0e:	70 95       	com	r23
    1c10:	61 95       	neg	r22
    1c12:	7f 4f       	sbci	r23, 0xFF	; 255

00001c14 <__divmodhi4_exit>:
    1c14:	08 95       	ret

00001c16 <__divmodsi4>:
    1c16:	05 2e       	mov	r0, r21
    1c18:	97 fb       	bst	r25, 7
    1c1a:	16 f4       	brtc	.+4      	; 0x1c20 <__divmodsi4+0xa>
    1c1c:	00 94       	com	r0
    1c1e:	07 d0       	rcall	.+14     	; 0x1c2e <__divmodsi4_neg1>
    1c20:	57 fd       	sbrc	r21, 7
    1c22:	0d d0       	rcall	.+26     	; 0x1c3e <__divmodsi4_neg2>
    1c24:	0e 94 47 0e 	call	0x1c8e	; 0x1c8e <__udivmodsi4>
    1c28:	07 fc       	sbrc	r0, 7
    1c2a:	09 d0       	rcall	.+18     	; 0x1c3e <__divmodsi4_neg2>
    1c2c:	7e f4       	brtc	.+30     	; 0x1c4c <__divmodsi4_exit>

00001c2e <__divmodsi4_neg1>:
    1c2e:	90 95       	com	r25
    1c30:	80 95       	com	r24
    1c32:	70 95       	com	r23
    1c34:	61 95       	neg	r22
    1c36:	7f 4f       	sbci	r23, 0xFF	; 255
    1c38:	8f 4f       	sbci	r24, 0xFF	; 255
    1c3a:	9f 4f       	sbci	r25, 0xFF	; 255
    1c3c:	08 95       	ret

00001c3e <__divmodsi4_neg2>:
    1c3e:	50 95       	com	r21
    1c40:	40 95       	com	r20
    1c42:	30 95       	com	r19
    1c44:	21 95       	neg	r18
    1c46:	3f 4f       	sbci	r19, 0xFF	; 255
    1c48:	4f 4f       	sbci	r20, 0xFF	; 255
    1c4a:	5f 4f       	sbci	r21, 0xFF	; 255

00001c4c <__divmodsi4_exit>:
    1c4c:	08 95       	ret

00001c4e <__umulhisi3>:
    1c4e:	a2 9f       	mul	r26, r18
    1c50:	b0 01       	movw	r22, r0
    1c52:	b3 9f       	mul	r27, r19
    1c54:	c0 01       	movw	r24, r0
    1c56:	a3 9f       	mul	r26, r19
    1c58:	01 d0       	rcall	.+2      	; 0x1c5c <__umulhisi3+0xe>
    1c5a:	b2 9f       	mul	r27, r18
    1c5c:	70 0d       	add	r23, r0
    1c5e:	81 1d       	adc	r24, r1
    1c60:	11 24       	eor	r1, r1
    1c62:	91 1d       	adc	r25, r1
    1c64:	08 95       	ret

00001c66 <__udivmodhi4>:
    1c66:	aa 1b       	sub	r26, r26
    1c68:	bb 1b       	sub	r27, r27
    1c6a:	51 e1       	ldi	r21, 0x11	; 17
    1c6c:	07 c0       	rjmp	.+14     	; 0x1c7c <__udivmodhi4_ep>

00001c6e <__udivmodhi4_loop>:
    1c6e:	aa 1f       	adc	r26, r26
    1c70:	bb 1f       	adc	r27, r27
    1c72:	a6 17       	cp	r26, r22
    1c74:	b7 07       	cpc	r27, r23
    1c76:	10 f0       	brcs	.+4      	; 0x1c7c <__udivmodhi4_ep>
    1c78:	a6 1b       	sub	r26, r22
    1c7a:	b7 0b       	sbc	r27, r23

00001c7c <__udivmodhi4_ep>:
    1c7c:	88 1f       	adc	r24, r24
    1c7e:	99 1f       	adc	r25, r25
    1c80:	5a 95       	dec	r21
    1c82:	a9 f7       	brne	.-22     	; 0x1c6e <__udivmodhi4_loop>
    1c84:	80 95       	com	r24
    1c86:	90 95       	com	r25
    1c88:	bc 01       	movw	r22, r24
    1c8a:	cd 01       	movw	r24, r26
    1c8c:	08 95       	ret

00001c8e <__udivmodsi4>:
    1c8e:	a1 e2       	ldi	r26, 0x21	; 33
    1c90:	1a 2e       	mov	r1, r26
    1c92:	aa 1b       	sub	r26, r26
    1c94:	bb 1b       	sub	r27, r27
    1c96:	fd 01       	movw	r30, r26
    1c98:	0d c0       	rjmp	.+26     	; 0x1cb4 <__udivmodsi4_ep>

00001c9a <__udivmodsi4_loop>:
    1c9a:	aa 1f       	adc	r26, r26
    1c9c:	bb 1f       	adc	r27, r27
    1c9e:	ee 1f       	adc	r30, r30
    1ca0:	ff 1f       	adc	r31, r31
    1ca2:	a2 17       	cp	r26, r18
    1ca4:	b3 07       	cpc	r27, r19
    1ca6:	e4 07       	cpc	r30, r20
    1ca8:	f5 07       	cpc	r31, r21
    1caa:	20 f0       	brcs	.+8      	; 0x1cb4 <__udivmodsi4_ep>
    1cac:	a2 1b       	sub	r26, r18
    1cae:	b3 0b       	sbc	r27, r19
    1cb0:	e4 0b       	sbc	r30, r20
    1cb2:	f5 0b       	sbc	r31, r21

00001cb4 <__udivmodsi4_ep>:
    1cb4:	66 1f       	adc	r22, r22
    1cb6:	77 1f       	adc	r23, r23
    1cb8:	88 1f       	adc	r24, r24
    1cba:	99 1f       	adc	r25, r25
    1cbc:	1a 94       	dec	r1
    1cbe:	69 f7       	brne	.-38     	; 0x1c9a <__udivmodsi4_loop>
    1cc0:	60 95       	com	r22
    1cc2:	70 95       	com	r23
    1cc4:	80 95       	com	r24
    1cc6:	90 95       	com	r25
    1cc8:	9b 01       	movw	r18, r22
    1cca:	ac 01       	movw	r20, r24
    1ccc:	bd 01       	movw	r22, r26
    1cce:	cf 01       	movw	r24, r30
    1cd0:	08 95       	ret

00001cd2 <itoa>:
    1cd2:	fb 01       	movw	r30, r22
    1cd4:	9f 01       	movw	r18, r30
    1cd6:	e8 94       	clt
    1cd8:	42 30       	cpi	r20, 0x02	; 2
    1cda:	c4 f0       	brlt	.+48     	; 0x1d0c <itoa+0x3a>
    1cdc:	45 32       	cpi	r20, 0x25	; 37
    1cde:	b4 f4       	brge	.+44     	; 0x1d0c <itoa+0x3a>
    1ce0:	4a 30       	cpi	r20, 0x0A	; 10
    1ce2:	29 f4       	brne	.+10     	; 0x1cee <itoa+0x1c>
    1ce4:	97 fb       	bst	r25, 7
    1ce6:	1e f4       	brtc	.+6      	; 0x1cee <itoa+0x1c>
    1ce8:	90 95       	com	r25
    1cea:	81 95       	neg	r24
    1cec:	9f 4f       	sbci	r25, 0xFF	; 255
    1cee:	64 2f       	mov	r22, r20
    1cf0:	77 27       	eor	r23, r23
    1cf2:	0e 94 33 0e 	call	0x1c66	; 0x1c66 <__udivmodhi4>
    1cf6:	80 5d       	subi	r24, 0xD0	; 208
    1cf8:	8a 33       	cpi	r24, 0x3A	; 58
    1cfa:	0c f0       	brlt	.+2      	; 0x1cfe <itoa+0x2c>
    1cfc:	89 5d       	subi	r24, 0xD9	; 217
    1cfe:	81 93       	st	Z+, r24
    1d00:	cb 01       	movw	r24, r22
    1d02:	00 97       	sbiw	r24, 0x00	; 0
    1d04:	a1 f7       	brne	.-24     	; 0x1cee <itoa+0x1c>
    1d06:	16 f4       	brtc	.+4      	; 0x1d0c <itoa+0x3a>
    1d08:	5d e2       	ldi	r21, 0x2D	; 45
    1d0a:	51 93       	st	Z+, r21
    1d0c:	10 82       	st	Z, r1
    1d0e:	c9 01       	movw	r24, r18
    1d10:	0c 94 be 0e 	jmp	0x1d7c	; 0x1d7c <strrev>

00001d14 <ltoa>:
    1d14:	fa 01       	movw	r30, r20
    1d16:	cf 93       	push	r28
    1d18:	ff 93       	push	r31
    1d1a:	ef 93       	push	r30
    1d1c:	22 30       	cpi	r18, 0x02	; 2
    1d1e:	44 f1       	brlt	.+80     	; 0x1d70 <ltoa+0x5c>
    1d20:	25 32       	cpi	r18, 0x25	; 37
    1d22:	34 f5       	brge	.+76     	; 0x1d70 <ltoa+0x5c>
    1d24:	c2 2f       	mov	r28, r18
    1d26:	e8 94       	clt
    1d28:	ca 30       	cpi	r28, 0x0A	; 10
    1d2a:	49 f4       	brne	.+18     	; 0x1d3e <ltoa+0x2a>
    1d2c:	97 fb       	bst	r25, 7
    1d2e:	3e f4       	brtc	.+14     	; 0x1d3e <ltoa+0x2a>
    1d30:	90 95       	com	r25
    1d32:	80 95       	com	r24
    1d34:	70 95       	com	r23
    1d36:	61 95       	neg	r22
    1d38:	7f 4f       	sbci	r23, 0xFF	; 255
    1d3a:	8f 4f       	sbci	r24, 0xFF	; 255
    1d3c:	9f 4f       	sbci	r25, 0xFF	; 255
    1d3e:	2c 2f       	mov	r18, r28
    1d40:	33 27       	eor	r19, r19
    1d42:	44 27       	eor	r20, r20
    1d44:	55 27       	eor	r21, r21
    1d46:	ff 93       	push	r31
    1d48:	ef 93       	push	r30
    1d4a:	0e 94 47 0e 	call	0x1c8e	; 0x1c8e <__udivmodsi4>
    1d4e:	ef 91       	pop	r30
    1d50:	ff 91       	pop	r31
    1d52:	60 5d       	subi	r22, 0xD0	; 208
    1d54:	6a 33       	cpi	r22, 0x3A	; 58
    1d56:	0c f0       	brlt	.+2      	; 0x1d5a <ltoa+0x46>
    1d58:	69 5d       	subi	r22, 0xD9	; 217
    1d5a:	61 93       	st	Z+, r22
    1d5c:	b9 01       	movw	r22, r18
    1d5e:	ca 01       	movw	r24, r20
    1d60:	60 50       	subi	r22, 0x00	; 0
    1d62:	70 40       	sbci	r23, 0x00	; 0
    1d64:	80 40       	sbci	r24, 0x00	; 0
    1d66:	90 40       	sbci	r25, 0x00	; 0
    1d68:	51 f7       	brne	.-44     	; 0x1d3e <ltoa+0x2a>
    1d6a:	16 f4       	brtc	.+4      	; 0x1d70 <ltoa+0x5c>
    1d6c:	cd e2       	ldi	r28, 0x2D	; 45
    1d6e:	c1 93       	st	Z+, r28
    1d70:	10 82       	st	Z, r1
    1d72:	8f 91       	pop	r24
    1d74:	9f 91       	pop	r25
    1d76:	cf 91       	pop	r28
    1d78:	0c 94 be 0e 	jmp	0x1d7c	; 0x1d7c <strrev>

00001d7c <strrev>:
    1d7c:	dc 01       	movw	r26, r24
    1d7e:	fc 01       	movw	r30, r24
    1d80:	67 2f       	mov	r22, r23
    1d82:	71 91       	ld	r23, Z+
    1d84:	77 23       	and	r23, r23
    1d86:	e1 f7       	brne	.-8      	; 0x1d80 <strrev+0x4>
    1d88:	32 97       	sbiw	r30, 0x02	; 2
    1d8a:	04 c0       	rjmp	.+8      	; 0x1d94 <strrev+0x18>
    1d8c:	7c 91       	ld	r23, X
    1d8e:	6d 93       	st	X+, r22
    1d90:	70 83       	st	Z, r23
    1d92:	62 91       	ld	r22, -Z
    1d94:	ae 17       	cp	r26, r30
    1d96:	bf 07       	cpc	r27, r31
    1d98:	c8 f3       	brcs	.-14     	; 0x1d8c <strrev+0x10>
    1d9a:	08 95       	ret

00001d9c <_exit>:
    1d9c:	f8 94       	cli

00001d9e <__stop_program>:
    1d9e:	ff cf       	rjmp	.-2      	; 0x1d9e <__stop_program>
