
99_M169_JHK567.elf:     file format elf32-avr

Sections:
Idx Name          Size      VMA       LMA       File off  Algn
  0 .data         00000000  00800100  000005c6  0000063a  2**0
                  CONTENTS, ALLOC, LOAD, DATA
  1 .text         000005c6  00000000  00000000  00000074  2**1
                  CONTENTS, ALLOC, LOAD, READONLY, CODE
  2 .stab         000006cc  00000000  00000000  0000063c  2**2
                  CONTENTS, READONLY, DEBUGGING
  3 .stabstr      00000097  00000000  00000000  00000d08  2**0
                  CONTENTS, READONLY, DEBUGGING
  4 .comment      0000002f  00000000  00000000  00000d9f  2**0
                  CONTENTS, READONLY

Disassembly of section .text:

00000000 <__vectors>:
   0:	0c 94 53 00 	jmp	0xa6	; 0xa6 <__ctors_end>
   4:	0c 94 5d 00 	jmp	0xba	; 0xba <__bad_interrupt>
   8:	0c 94 5d 00 	jmp	0xba	; 0xba <__bad_interrupt>
   c:	0c 94 5d 00 	jmp	0xba	; 0xba <__bad_interrupt>
  10:	0c 94 5d 00 	jmp	0xba	; 0xba <__bad_interrupt>
  14:	0c 94 5d 00 	jmp	0xba	; 0xba <__bad_interrupt>
  18:	0c 94 5d 00 	jmp	0xba	; 0xba <__bad_interrupt>
  1c:	0c 94 5d 00 	jmp	0xba	; 0xba <__bad_interrupt>
  20:	0c 94 5d 00 	jmp	0xba	; 0xba <__bad_interrupt>
  24:	0c 94 5d 00 	jmp	0xba	; 0xba <__bad_interrupt>
  28:	0c 94 5d 00 	jmp	0xba	; 0xba <__bad_interrupt>
  2c:	0c 94 5d 00 	jmp	0xba	; 0xba <__bad_interrupt>
  30:	0c 94 5d 00 	jmp	0xba	; 0xba <__bad_interrupt>
  34:	0c 94 5d 00 	jmp	0xba	; 0xba <__bad_interrupt>
  38:	0c 94 5d 00 	jmp	0xba	; 0xba <__bad_interrupt>
  3c:	0c 94 5d 00 	jmp	0xba	; 0xba <__bad_interrupt>
  40:	0c 94 5d 00 	jmp	0xba	; 0xba <__bad_interrupt>
  44:	0c 94 5d 00 	jmp	0xba	; 0xba <__bad_interrupt>
  48:	0c 94 5d 00 	jmp	0xba	; 0xba <__bad_interrupt>
  4c:	0c 94 5d 00 	jmp	0xba	; 0xba <__bad_interrupt>
  50:	0c 94 5d 00 	jmp	0xba	; 0xba <__bad_interrupt>
  54:	0c 94 5d 00 	jmp	0xba	; 0xba <__bad_interrupt>
  58:	0c 94 5d 00 	jmp	0xba	; 0xba <__bad_interrupt>

0000005c <lcd_7seg_disp>:
  5c:	12 3a 62 61 89 39 8a 10 38 60 5f 87 37 88 0e 36     .:ba.9..8`_.7..6
  6c:	5e 5d 85 35 86 0c 34 5c 5b 83 33 84 0a 32 5a 59     ^].5..4\[.3..2ZY
  7c:	81 31 82 08 30 58 57 7f 2f 80 06 2e 56 55 7d 2d     .1..0XW./...VU}-
  8c:	7e 03 2b 53 52 7a 2a 7b 01 29 51 50 78 28 79        ~.+SRz*{.)QPx(y

0000009b <lcd_7seg_dig>:
  9b:	3f 06 5b 4f 66 6d 7d 07 7f 6f 00                    ?.[Ofm}..o.

000000a6 <__ctors_end>:
  a6:	11 24       	eor	r1, r1
  a8:	1f be       	out	0x3f, r1	; 63
  aa:	cf ef       	ldi	r28, 0xFF	; 255
  ac:	d4 e0       	ldi	r29, 0x04	; 4
  ae:	de bf       	out	0x3e, r29	; 62
  b0:	cd bf       	out	0x3d, r28	; 61
  b2:	0e 94 a3 00 	call	0x146	; 0x146 <main>
  b6:	0c 94 e1 02 	jmp	0x5c2	; 0x5c2 <_exit>

000000ba <__bad_interrupt>:
  ba:	0c 94 00 00 	jmp	0	; 0x0 <__vectors>

000000be <piec>:
  be:	61 e0       	ldi	r22, 0x01	; 1
  c0:	84 e5       	ldi	r24, 0x54	; 84
  c2:	0e 94 d0 00 	call	0x1a0	; 0x1a0 <LCD567_segment>
  c6:	61 e0       	ldi	r22, 0x01	; 1
  c8:	86 e0       	ldi	r24, 0x06	; 6
  ca:	0e 94 d0 00 	call	0x1a0	; 0x1a0 <LCD567_segment>
  ce:	61 e0       	ldi	r22, 0x01	; 1
  d0:	8e e2       	ldi	r24, 0x2E	; 46
  d2:	0e 94 d0 00 	call	0x1a0	; 0x1a0 <LCD567_segment>
  d6:	61 e0       	ldi	r22, 0x01	; 1
  d8:	8d e7       	ldi	r24, 0x7D	; 125
  da:	0e 94 d0 00 	call	0x1a0	; 0x1a0 <LCD567_segment>
  de:	61 e0       	ldi	r22, 0x01	; 1
  e0:	8d e2       	ldi	r24, 0x2D	; 45
  e2:	0e 94 d0 00 	call	0x1a0	; 0x1a0 <LCD567_segment>
  e6:	61 e0       	ldi	r22, 0x01	; 1
  e8:	8e e7       	ldi	r24, 0x7E	; 126
  ea:	0e 94 d0 00 	call	0x1a0	; 0x1a0 <LCD567_segment>
  ee:	61 e0       	ldi	r22, 0x01	; 1
  f0:	8f e7       	ldi	r24, 0x7F	; 127
  f2:	0e 94 d0 00 	call	0x1a0	; 0x1a0 <LCD567_segment>
  f6:	61 e0       	ldi	r22, 0x01	; 1
  f8:	8f e2       	ldi	r24, 0x2F	; 47
  fa:	0e 94 d0 00 	call	0x1a0	; 0x1a0 <LCD567_segment>
  fe:	61 e0       	ldi	r22, 0x01	; 1
 100:	8a e0       	ldi	r24, 0x0A	; 10
 102:	0e 94 d0 00 	call	0x1a0	; 0x1a0 <LCD567_segment>
 106:	61 e0       	ldi	r22, 0x01	; 1
 108:	89 e5       	ldi	r24, 0x59	; 89
 10a:	0e 94 d0 00 	call	0x1a0	; 0x1a0 <LCD567_segment>
 10e:	61 e0       	ldi	r22, 0x01	; 1
 110:	81 e8       	ldi	r24, 0x81	; 129
 112:	0e 94 d0 00 	call	0x1a0	; 0x1a0 <LCD567_segment>
 116:	61 e0       	ldi	r22, 0x01	; 1
 118:	81 e3       	ldi	r24, 0x31	; 49
 11a:	0e 94 d0 00 	call	0x1a0	; 0x1a0 <LCD567_segment>
 11e:	61 e0       	ldi	r22, 0x01	; 1
 120:	82 e8       	ldi	r24, 0x82	; 130
 122:	0e 94 d0 00 	call	0x1a0	; 0x1a0 <LCD567_segment>
 126:	61 e0       	ldi	r22, 0x01	; 1
 128:	8c e0       	ldi	r24, 0x0C	; 12
 12a:	0e 94 d0 00 	call	0x1a0	; 0x1a0 <LCD567_segment>
 12e:	61 e0       	ldi	r22, 0x01	; 1
 130:	8b e5       	ldi	r24, 0x5B	; 91
 132:	0e 94 d0 00 	call	0x1a0	; 0x1a0 <LCD567_segment>
 136:	61 e0       	ldi	r22, 0x01	; 1
 138:	83 e8       	ldi	r24, 0x83	; 131
 13a:	0e 94 d0 00 	call	0x1a0	; 0x1a0 <LCD567_segment>
 13e:	61 e0       	ldi	r22, 0x01	; 1
 140:	83 e3       	ldi	r24, 0x33	; 51
 142:	0c 94 d0 00 	jmp	0x1a0	; 0x1a0 <LCD567_segment>

00000146 <main>:
 146:	0e 94 c3 00 	call	0x186	; 0x186 <LCD567_init>
 14a:	c0 e0       	ldi	r28, 0x00	; 0
 14c:	d0 e0       	ldi	r29, 0x00	; 0
 14e:	02 e3       	ldi	r16, 0x32	; 50
 150:	10 e0       	ldi	r17, 0x00	; 0
 152:	be 01       	movw	r22, r28
 154:	80 e0       	ldi	r24, 0x00	; 0
 156:	90 e0       	ldi	r25, 0x00	; 0
 158:	0e 94 2a 01 	call	0x254	; 0x254 <LCD567_number>
 15c:	ce 01       	movw	r24, r28
 15e:	b8 01       	movw	r22, r16
 160:	0e 94 8f 02 	call	0x51e	; 0x51e <__udivmodhi4>
 164:	61 70       	andi	r22, 0x01	; 1
 166:	77 27       	eor	r23, r23
 168:	81 e1       	ldi	r24, 0x11	; 17
 16a:	0e 94 d0 00 	call	0x1a0	; 0x1a0 <LCD567_segment>
 16e:	0e 94 5f 00 	call	0xbe	; 0xbe <piec>
 172:	29 e9       	ldi	r18, 0x99	; 153
 174:	89 e5       	ldi	r24, 0x59	; 89
 176:	91 e0       	ldi	r25, 0x01	; 1
 178:	21 50       	subi	r18, 0x01	; 1
 17a:	80 40       	sbci	r24, 0x00	; 0
 17c:	90 40       	sbci	r25, 0x00	; 0
 17e:	e1 f7       	brne	.-8      	; 0x178 <main+0x32>
 180:	00 00       	nop
 182:	21 96       	adiw	r28, 0x01	; 1
 184:	e6 cf       	rjmp	.-52     	; 0x152 <main+0xc>

00000186 <LCD567_init>:
 186:	84 e7       	ldi	r24, 0x74	; 116
 188:	80 93 e5 00 	sts	0x00E5, r24
 18c:	86 e7       	ldi	r24, 0x76	; 118
 18e:	80 93 e6 00 	sts	0x00E6, r24
 192:	88 e4       	ldi	r24, 0x48	; 72
 194:	80 93 e7 00 	sts	0x00E7, r24
 198:	80 e8       	ldi	r24, 0x80	; 128
 19a:	80 93 e4 00 	sts	0x00E4, r24
 19e:	08 95       	ret

000001a0 <LCD567_segment>:
 1a0:	e8 2f       	mov	r30, r24
 1a2:	e6 95       	lsr	r30
 1a4:	e6 95       	lsr	r30
 1a6:	e6 95       	lsr	r30
 1a8:	f0 e0       	ldi	r31, 0x00	; 0
 1aa:	e4 51       	subi	r30, 0x14	; 20
 1ac:	ff 4f       	sbci	r31, 0xFF	; 255
 1ae:	87 70       	andi	r24, 0x07	; 7
 1b0:	90 81       	ld	r25, Z
 1b2:	21 e0       	ldi	r18, 0x01	; 1
 1b4:	30 e0       	ldi	r19, 0x00	; 0
 1b6:	08 2e       	mov	r0, r24
 1b8:	01 c0       	rjmp	.+2      	; 0x1bc <LCD567_segment+0x1c>
 1ba:	22 0f       	add	r18, r18
 1bc:	0a 94       	dec	r0
 1be:	ea f7       	brpl	.-6      	; 0x1ba <LCD567_segment+0x1a>
 1c0:	66 23       	and	r22, r22
 1c2:	11 f0       	breq	.+4      	; 0x1c8 <LCD567_segment+0x28>
 1c4:	29 2b       	or	r18, r25
 1c6:	02 c0       	rjmp	.+4      	; 0x1cc <LCD567_segment+0x2c>
 1c8:	20 95       	com	r18
 1ca:	29 23       	and	r18, r25
 1cc:	20 83       	st	Z, r18
 1ce:	08 95       	ret

000001d0 <LCD567_digit>:
 1d0:	ef 92       	push	r14
 1d2:	ff 92       	push	r15
 1d4:	0f 93       	push	r16
 1d6:	1f 93       	push	r17
 1d8:	cf 93       	push	r28
 1da:	df 93       	push	r29
 1dc:	69 30       	cpi	r22, 0x09	; 9
 1de:	08 f0       	brcs	.+2      	; 0x1e2 <LCD567_digit+0x12>
 1e0:	68 e0       	ldi	r22, 0x08	; 8
 1e2:	97 e0       	ldi	r25, 0x07	; 7
 1e4:	69 9f       	mul	r22, r25
 1e6:	80 01       	movw	r16, r0
 1e8:	11 24       	eor	r1, r1
 1ea:	c0 e0       	ldi	r28, 0x00	; 0
 1ec:	d0 e0       	ldi	r29, 0x00	; 0
 1ee:	8a 30       	cpi	r24, 0x0A	; 10
 1f0:	e8 f4       	brcc	.+58     	; 0x22c <LCD567_digit+0x5c>
 1f2:	e8 2f       	mov	r30, r24
 1f4:	f0 e0       	ldi	r31, 0x00	; 0
 1f6:	e5 56       	subi	r30, 0x65	; 101
 1f8:	ff 4f       	sbci	r31, 0xFF	; 255
 1fa:	e4 91       	lpm	r30, Z
 1fc:	ee 2e       	mov	r14, r30
 1fe:	f1 2c       	mov	r15, r1
 200:	fe 01       	movw	r30, r28
 202:	e0 0f       	add	r30, r16
 204:	f1 1f       	adc	r31, r17
 206:	e4 5a       	subi	r30, 0xA4	; 164
 208:	ff 4f       	sbci	r31, 0xFF	; 255
 20a:	84 91       	lpm	r24, Z
 20c:	b7 01       	movw	r22, r14
 20e:	0c 2e       	mov	r0, r28
 210:	02 c0       	rjmp	.+4      	; 0x216 <LCD567_digit+0x46>
 212:	75 95       	asr	r23
 214:	67 95       	ror	r22
 216:	0a 94       	dec	r0
 218:	e2 f7       	brpl	.-8      	; 0x212 <LCD567_digit+0x42>
 21a:	61 70       	andi	r22, 0x01	; 1
 21c:	77 27       	eor	r23, r23
 21e:	0e 94 d0 00 	call	0x1a0	; 0x1a0 <LCD567_segment>
 222:	21 96       	adiw	r28, 0x01	; 1
 224:	c7 30       	cpi	r28, 0x07	; 7
 226:	d1 05       	cpc	r29, r1
 228:	59 f7       	brne	.-42     	; 0x200 <LCD567_digit+0x30>
 22a:	0d c0       	rjmp	.+26     	; 0x246 <LCD567_digit+0x76>
 22c:	fe 01       	movw	r30, r28
 22e:	e0 0f       	add	r30, r16
 230:	f1 1f       	adc	r31, r17
 232:	e4 5a       	subi	r30, 0xA4	; 164
 234:	ff 4f       	sbci	r31, 0xFF	; 255
 236:	84 91       	lpm	r24, Z
 238:	60 e0       	ldi	r22, 0x00	; 0
 23a:	0e 94 d0 00 	call	0x1a0	; 0x1a0 <LCD567_segment>
 23e:	21 96       	adiw	r28, 0x01	; 1
 240:	c7 30       	cpi	r28, 0x07	; 7
 242:	d1 05       	cpc	r29, r1
 244:	99 f7       	brne	.-26     	; 0x22c <LCD567_digit+0x5c>
 246:	df 91       	pop	r29
 248:	cf 91       	pop	r28
 24a:	1f 91       	pop	r17
 24c:	0f 91       	pop	r16
 24e:	ff 90       	pop	r15
 250:	ef 90       	pop	r14
 252:	08 95       	ret

00000254 <LCD567_number>:
 254:	cf 92       	push	r12
 256:	df 92       	push	r13
 258:	ef 92       	push	r14
 25a:	ff 92       	push	r15
 25c:	cf 93       	push	r28
 25e:	df 93       	push	r29
 260:	20 91 ec 00 	lds	r18, 0x00EC
 264:	2f 7e       	andi	r18, 0xEF	; 239
 266:	20 93 ec 00 	sts	0x00EC, r18
 26a:	60 38       	cpi	r22, 0x80	; 128
 26c:	36 e9       	ldi	r19, 0x96	; 150
 26e:	73 07       	cpc	r23, r19
 270:	38 e9       	ldi	r19, 0x98	; 152
 272:	83 07       	cpc	r24, r19
 274:	91 05       	cpc	r25, r1
 276:	4c f0       	brlt	.+18     	; 0x28a <LCD567_number+0x36>
 278:	20 61       	ori	r18, 0x10	; 16
 27a:	20 93 ec 00 	sts	0x00EC, r18
 27e:	c0 e0       	ldi	r28, 0x00	; 0
 280:	6f e7       	ldi	r22, 0x7F	; 127
 282:	76 e9       	ldi	r23, 0x96	; 150
 284:	88 e9       	ldi	r24, 0x98	; 152
 286:	90 e0       	ldi	r25, 0x00	; 0
 288:	1c c0       	rjmp	.+56     	; 0x2c2 <LCD567_number+0x6e>
 28a:	97 ff       	sbrs	r25, 7
 28c:	17 c0       	rjmp	.+46     	; 0x2bc <LCD567_number+0x68>
 28e:	90 95       	com	r25
 290:	80 95       	com	r24
 292:	70 95       	com	r23
 294:	61 95       	neg	r22
 296:	7f 4f       	sbci	r23, 0xFF	; 255
 298:	8f 4f       	sbci	r24, 0xFF	; 255
 29a:	9f 4f       	sbci	r25, 0xFF	; 255
 29c:	60 34       	cpi	r22, 0x40	; 64
 29e:	32 e4       	ldi	r19, 0x42	; 66
 2a0:	73 07       	cpc	r23, r19
 2a2:	3f e0       	ldi	r19, 0x0F	; 15
 2a4:	83 07       	cpc	r24, r19
 2a6:	91 05       	cpc	r25, r1
 2a8:	5c f0       	brlt	.+22     	; 0x2c0 <LCD567_number+0x6c>
 2aa:	20 61       	ori	r18, 0x10	; 16
 2ac:	20 93 ec 00 	sts	0x00EC, r18
 2b0:	ce e7       	ldi	r28, 0x7E	; 126
 2b2:	6f e3       	ldi	r22, 0x3F	; 63
 2b4:	72 e4       	ldi	r23, 0x42	; 66
 2b6:	8f e0       	ldi	r24, 0x0F	; 15
 2b8:	90 e0       	ldi	r25, 0x00	; 0
 2ba:	03 c0       	rjmp	.+6      	; 0x2c2 <LCD567_number+0x6e>
 2bc:	c0 e0       	ldi	r28, 0x00	; 0
 2be:	01 c0       	rjmp	.+2      	; 0x2c2 <LCD567_number+0x6e>
 2c0:	ce e7       	ldi	r28, 0x7E	; 126
 2c2:	20 e4       	ldi	r18, 0x40	; 64
 2c4:	32 e4       	ldi	r19, 0x42	; 66
 2c6:	4f e0       	ldi	r20, 0x0F	; 15
 2c8:	50 e0       	ldi	r21, 0x00	; 0
 2ca:	0e 94 c5 02 	call	0x58a	; 0x58a <__divmodsi4>
 2ce:	6b 01       	movw	r12, r22
 2d0:	7c 01       	movw	r14, r24
 2d2:	22 23       	and	r18, r18
 2d4:	31 f0       	breq	.+12     	; 0x2e2 <LCD567_number+0x8e>
 2d6:	66 e0       	ldi	r22, 0x06	; 6
 2d8:	82 2f       	mov	r24, r18
 2da:	0e 94 e8 00 	call	0x1d0	; 0x1d0 <LCD567_digit>
 2de:	d1 e0       	ldi	r29, 0x01	; 1
 2e0:	07 c0       	rjmp	.+14     	; 0x2f0 <LCD567_number+0x9c>
 2e2:	c1 11       	cpse	r28, r1
 2e4:	ce e7       	ldi	r28, 0x7E	; 126
 2e6:	66 e0       	ldi	r22, 0x06	; 6
 2e8:	8f ef       	ldi	r24, 0xFF	; 255
 2ea:	0e 94 e8 00 	call	0x1d0	; 0x1d0 <LCD567_digit>
 2ee:	d0 e0       	ldi	r29, 0x00	; 0
 2f0:	c7 01       	movw	r24, r14
 2f2:	b6 01       	movw	r22, r12
 2f4:	20 ea       	ldi	r18, 0xA0	; 160
 2f6:	36 e8       	ldi	r19, 0x86	; 134
 2f8:	41 e0       	ldi	r20, 0x01	; 1
 2fa:	50 e0       	ldi	r21, 0x00	; 0
 2fc:	0e 94 c5 02 	call	0x58a	; 0x58a <__divmodsi4>
 300:	6b 01       	movw	r12, r22
 302:	7c 01       	movw	r14, r24
 304:	82 2f       	mov	r24, r18
 306:	21 11       	cpse	r18, r1
 308:	02 c0       	rjmp	.+4      	; 0x30e <LCD567_number+0xba>
 30a:	dd 23       	and	r29, r29
 30c:	29 f0       	breq	.+10     	; 0x318 <LCD567_number+0xc4>
 30e:	65 e0       	ldi	r22, 0x05	; 5
 310:	0e 94 e8 00 	call	0x1d0	; 0x1d0 <LCD567_digit>
 314:	d1 e0       	ldi	r29, 0x01	; 1
 316:	06 c0       	rjmp	.+12     	; 0x324 <LCD567_number+0xd0>
 318:	c1 11       	cpse	r28, r1
 31a:	c0 e8       	ldi	r28, 0x80	; 128
 31c:	65 e0       	ldi	r22, 0x05	; 5
 31e:	8f ef       	ldi	r24, 0xFF	; 255
 320:	0e 94 e8 00 	call	0x1d0	; 0x1d0 <LCD567_digit>
 324:	c7 01       	movw	r24, r14
 326:	b6 01       	movw	r22, r12
 328:	20 e1       	ldi	r18, 0x10	; 16
 32a:	37 e2       	ldi	r19, 0x27	; 39
 32c:	40 e0       	ldi	r20, 0x00	; 0
 32e:	50 e0       	ldi	r21, 0x00	; 0
 330:	0e 94 c5 02 	call	0x58a	; 0x58a <__divmodsi4>
 334:	6b 01       	movw	r12, r22
 336:	7c 01       	movw	r14, r24
 338:	82 2f       	mov	r24, r18
 33a:	21 11       	cpse	r18, r1
 33c:	02 c0       	rjmp	.+4      	; 0x342 <LCD567_number+0xee>
 33e:	dd 23       	and	r29, r29
 340:	29 f0       	breq	.+10     	; 0x34c <LCD567_number+0xf8>
 342:	64 e0       	ldi	r22, 0x04	; 4
 344:	0e 94 e8 00 	call	0x1d0	; 0x1d0 <LCD567_digit>
 348:	d1 e0       	ldi	r29, 0x01	; 1
 34a:	06 c0       	rjmp	.+12     	; 0x358 <LCD567_number+0x104>
 34c:	c1 11       	cpse	r28, r1
 34e:	c2 e8       	ldi	r28, 0x82	; 130
 350:	64 e0       	ldi	r22, 0x04	; 4
 352:	8f ef       	ldi	r24, 0xFF	; 255
 354:	0e 94 e8 00 	call	0x1d0	; 0x1d0 <LCD567_digit>
 358:	c7 01       	movw	r24, r14
 35a:	b6 01       	movw	r22, r12
 35c:	28 ee       	ldi	r18, 0xE8	; 232
 35e:	33 e0       	ldi	r19, 0x03	; 3
 360:	40 e0       	ldi	r20, 0x00	; 0
 362:	50 e0       	ldi	r21, 0x00	; 0
 364:	0e 94 c5 02 	call	0x58a	; 0x58a <__divmodsi4>
 368:	6b 01       	movw	r12, r22
 36a:	7c 01       	movw	r14, r24
 36c:	82 2f       	mov	r24, r18
 36e:	21 11       	cpse	r18, r1
 370:	02 c0       	rjmp	.+4      	; 0x376 <LCD567_number+0x122>
 372:	dd 23       	and	r29, r29
 374:	29 f0       	breq	.+10     	; 0x380 <LCD567_number+0x12c>
 376:	63 e0       	ldi	r22, 0x03	; 3
 378:	0e 94 e8 00 	call	0x1d0	; 0x1d0 <LCD567_digit>
 37c:	d1 e0       	ldi	r29, 0x01	; 1
 37e:	06 c0       	rjmp	.+12     	; 0x38c <LCD567_number+0x138>
 380:	c1 11       	cpse	r28, r1
 382:	c4 e8       	ldi	r28, 0x84	; 132
 384:	63 e0       	ldi	r22, 0x03	; 3
 386:	8f ef       	ldi	r24, 0xFF	; 255
 388:	0e 94 e8 00 	call	0x1d0	; 0x1d0 <LCD567_digit>
 38c:	c7 01       	movw	r24, r14
 38e:	b6 01       	movw	r22, r12
 390:	24 e6       	ldi	r18, 0x64	; 100
 392:	30 e0       	ldi	r19, 0x00	; 0
 394:	40 e0       	ldi	r20, 0x00	; 0
 396:	50 e0       	ldi	r21, 0x00	; 0
 398:	0e 94 c5 02 	call	0x58a	; 0x58a <__divmodsi4>
 39c:	6b 01       	movw	r12, r22
 39e:	7c 01       	movw	r14, r24
 3a0:	82 2f       	mov	r24, r18
 3a2:	21 11       	cpse	r18, r1
 3a4:	02 c0       	rjmp	.+4      	; 0x3aa <LCD567_number+0x156>
 3a6:	dd 23       	and	r29, r29
 3a8:	29 f0       	breq	.+10     	; 0x3b4 <LCD567_number+0x160>
 3aa:	62 e0       	ldi	r22, 0x02	; 2
 3ac:	0e 94 e8 00 	call	0x1d0	; 0x1d0 <LCD567_digit>
 3b0:	d1 e0       	ldi	r29, 0x01	; 1
 3b2:	06 c0       	rjmp	.+12     	; 0x3c0 <LCD567_number+0x16c>
 3b4:	c1 11       	cpse	r28, r1
 3b6:	c6 e8       	ldi	r28, 0x86	; 134
 3b8:	62 e0       	ldi	r22, 0x02	; 2
 3ba:	8f ef       	ldi	r24, 0xFF	; 255
 3bc:	0e 94 e8 00 	call	0x1d0	; 0x1d0 <LCD567_digit>
 3c0:	c7 01       	movw	r24, r14
 3c2:	b6 01       	movw	r22, r12
 3c4:	2a e0       	ldi	r18, 0x0A	; 10
 3c6:	30 e0       	ldi	r19, 0x00	; 0
 3c8:	40 e0       	ldi	r20, 0x00	; 0
 3ca:	50 e0       	ldi	r21, 0x00	; 0
 3cc:	0e 94 c5 02 	call	0x58a	; 0x58a <__divmodsi4>
 3d0:	82 2f       	mov	r24, r18
 3d2:	f6 2e       	mov	r15, r22
 3d4:	21 11       	cpse	r18, r1
 3d6:	02 c0       	rjmp	.+4      	; 0x3dc <LCD567_number+0x188>
 3d8:	dd 23       	and	r29, r29
 3da:	11 f0       	breq	.+4      	; 0x3e0 <LCD567_number+0x18c>
 3dc:	61 e0       	ldi	r22, 0x01	; 1
 3de:	04 c0       	rjmp	.+8      	; 0x3e8 <LCD567_number+0x194>
 3e0:	c1 11       	cpse	r28, r1
 3e2:	c8 e8       	ldi	r28, 0x88	; 136
 3e4:	61 e0       	ldi	r22, 0x01	; 1
 3e6:	8f ef       	ldi	r24, 0xFF	; 255
 3e8:	0e 94 e8 00 	call	0x1d0	; 0x1d0 <LCD567_digit>
 3ec:	60 e0       	ldi	r22, 0x00	; 0
 3ee:	8f 2d       	mov	r24, r15
 3f0:	0e 94 e8 00 	call	0x1d0	; 0x1d0 <LCD567_digit>
 3f4:	cc 23       	and	r28, r28
 3f6:	51 f0       	breq	.+20     	; 0x40c <LCD567_number+0x1b8>
 3f8:	61 e0       	ldi	r22, 0x01	; 1
 3fa:	8c 2f       	mov	r24, r28
 3fc:	df 91       	pop	r29
 3fe:	cf 91       	pop	r28
 400:	ff 90       	pop	r15
 402:	ef 90       	pop	r14
 404:	df 90       	pop	r13
 406:	cf 90       	pop	r12
 408:	0c 94 d0 00 	jmp	0x1a0	; 0x1a0 <LCD567_segment>
 40c:	df 91       	pop	r29
 40e:	cf 91       	pop	r28
 410:	ff 90       	pop	r15
 412:	ef 90       	pop	r14
 414:	df 90       	pop	r13
 416:	cf 90       	pop	r12
 418:	08 95       	ret

0000041a <LCD567_small_number>:
 41a:	cf 93       	push	r28
 41c:	df 93       	push	r29
 41e:	1f 92       	push	r1
 420:	cd b7       	in	r28, 0x3d	; 61
 422:	de b7       	in	r29, 0x3e	; 62
 424:	84 36       	cpi	r24, 0x64	; 100
 426:	08 f0       	brcs	.+2      	; 0x42a <LCD567_small_number+0x10>
 428:	83 e6       	ldi	r24, 0x63	; 99
 42a:	6a e0       	ldi	r22, 0x0A	; 10
 42c:	0e 94 83 02 	call	0x506	; 0x506 <__udivmodqi4>
 430:	88 23       	and	r24, r24
 432:	29 f0       	breq	.+10     	; 0x43e <LCD567_small_number+0x24>
 434:	68 e0       	ldi	r22, 0x08	; 8
 436:	99 83       	std	Y+1, r25	; 0x01
 438:	0e 94 e8 00 	call	0x1d0	; 0x1d0 <LCD567_digit>
 43c:	99 81       	ldd	r25, Y+1	; 0x01
 43e:	67 e0       	ldi	r22, 0x07	; 7
 440:	89 2f       	mov	r24, r25
 442:	0f 90       	pop	r0
 444:	df 91       	pop	r29
 446:	cf 91       	pop	r28
 448:	0c 94 e8 00 	jmp	0x1d0	; 0x1d0 <LCD567_digit>

0000044c <uart_init>:
 44c:	9b 01       	movw	r18, r22
 44e:	ac 01       	movw	r20, r24
 450:	83 e0       	ldi	r24, 0x03	; 3
 452:	22 0f       	add	r18, r18
 454:	33 1f       	adc	r19, r19
 456:	44 1f       	adc	r20, r20
 458:	55 1f       	adc	r21, r21
 45a:	8a 95       	dec	r24
 45c:	d1 f7       	brne	.-12     	; 0x452 <uart_init+0x6>
 45e:	60 e0       	ldi	r22, 0x00	; 0
 460:	70 ec       	ldi	r23, 0xC0	; 192
 462:	88 ea       	ldi	r24, 0xA8	; 168
 464:	90 e0       	ldi	r25, 0x00	; 0
 466:	0e 94 a3 02 	call	0x546	; 0x546 <__udivmodsi4>
 46a:	21 50       	subi	r18, 0x01	; 1
 46c:	31 09       	sbc	r19, r1
 46e:	83 2f       	mov	r24, r19
 470:	99 27       	eor	r25, r25
 472:	8f 70       	andi	r24, 0x0F	; 15
 474:	99 27       	eor	r25, r25
 476:	80 93 c5 00 	sts	0x00C5, r24
 47a:	20 93 c4 00 	sts	0x00C4, r18
 47e:	82 e0       	ldi	r24, 0x02	; 2
 480:	80 93 c0 00 	sts	0x00C0, r24
 484:	86 e0       	ldi	r24, 0x06	; 6
 486:	80 93 c2 00 	sts	0x00C2, r24
 48a:	88 e1       	ldi	r24, 0x18	; 24
 48c:	80 93 c1 00 	sts	0x00C1, r24
 490:	08 95       	ret

00000492 <uart_char>:
 492:	90 91 c0 00 	lds	r25, 0x00C0
 496:	95 ff       	sbrs	r25, 5
 498:	fc cf       	rjmp	.-8      	; 0x492 <uart_char>
 49a:	80 93 c6 00 	sts	0x00C6, r24
 49e:	08 95       	ret

000004a0 <uart_tab>:
 4a0:	61 15       	cp	r22, r1
 4a2:	71 05       	cpc	r23, r1
 4a4:	49 f4       	brne	.+18     	; 0x4b8 <uart_tab+0x18>
 4a6:	dc 01       	movw	r26, r24
 4a8:	0d 90       	ld	r0, X+
 4aa:	00 20       	and	r0, r0
 4ac:	e9 f7       	brne	.-6      	; 0x4a8 <uart_tab+0x8>
 4ae:	bd 01       	movw	r22, r26
 4b0:	61 50       	subi	r22, 0x01	; 1
 4b2:	71 09       	sbc	r23, r1
 4b4:	68 1b       	sub	r22, r24
 4b6:	79 0b       	sbc	r23, r25
 4b8:	fc 01       	movw	r30, r24
 4ba:	68 0f       	add	r22, r24
 4bc:	79 1f       	adc	r23, r25
 4be:	07 c0       	rjmp	.+14     	; 0x4ce <uart_tab+0x2e>
 4c0:	80 91 c0 00 	lds	r24, 0x00C0
 4c4:	85 ff       	sbrs	r24, 5
 4c6:	fc cf       	rjmp	.-8      	; 0x4c0 <uart_tab+0x20>
 4c8:	81 91       	ld	r24, Z+
 4ca:	80 93 c6 00 	sts	0x00C6, r24
 4ce:	e6 17       	cp	r30, r22
 4d0:	f7 07       	cpc	r31, r23
 4d2:	b1 f7       	brne	.-20     	; 0x4c0 <uart_tab+0x20>
 4d4:	08 95       	ret

000004d6 <uart_get>:
 4d6:	80 91 c0 00 	lds	r24, 0x00C0
 4da:	87 ff       	sbrs	r24, 7
 4dc:	fc cf       	rjmp	.-8      	; 0x4d6 <uart_get>
 4de:	80 91 c6 00 	lds	r24, 0x00C6
 4e2:	08 95       	ret

000004e4 <uart_get_tab>:
 4e4:	fc 01       	movw	r30, r24
 4e6:	68 0f       	add	r22, r24
 4e8:	79 1f       	adc	r23, r25
 4ea:	80 e0       	ldi	r24, 0x00	; 0
 4ec:	08 c0       	rjmp	.+16     	; 0x4fe <uart_get_tab+0x1a>
 4ee:	90 91 c0 00 	lds	r25, 0x00C0
 4f2:	97 ff       	sbrs	r25, 7
 4f4:	fc cf       	rjmp	.-8      	; 0x4ee <uart_get_tab+0xa>
 4f6:	90 91 c6 00 	lds	r25, 0x00C6
 4fa:	91 93       	st	Z+, r25
 4fc:	89 27       	eor	r24, r25
 4fe:	e6 17       	cp	r30, r22
 500:	f7 07       	cpc	r31, r23
 502:	a9 f7       	brne	.-22     	; 0x4ee <uart_get_tab+0xa>
 504:	08 95       	ret

00000506 <__udivmodqi4>:
 506:	99 1b       	sub	r25, r25
 508:	79 e0       	ldi	r23, 0x09	; 9
 50a:	04 c0       	rjmp	.+8      	; 0x514 <__udivmodqi4_ep>

0000050c <__udivmodqi4_loop>:
 50c:	99 1f       	adc	r25, r25
 50e:	96 17       	cp	r25, r22
 510:	08 f0       	brcs	.+2      	; 0x514 <__udivmodqi4_ep>
 512:	96 1b       	sub	r25, r22

00000514 <__udivmodqi4_ep>:
 514:	88 1f       	adc	r24, r24
 516:	7a 95       	dec	r23
 518:	c9 f7       	brne	.-14     	; 0x50c <__udivmodqi4_loop>
 51a:	80 95       	com	r24
 51c:	08 95       	ret

0000051e <__udivmodhi4>:
 51e:	aa 1b       	sub	r26, r26
 520:	bb 1b       	sub	r27, r27
 522:	51 e1       	ldi	r21, 0x11	; 17
 524:	07 c0       	rjmp	.+14     	; 0x534 <__udivmodhi4_ep>

00000526 <__udivmodhi4_loop>:
 526:	aa 1f       	adc	r26, r26
 528:	bb 1f       	adc	r27, r27
 52a:	a6 17       	cp	r26, r22
 52c:	b7 07       	cpc	r27, r23
 52e:	10 f0       	brcs	.+4      	; 0x534 <__udivmodhi4_ep>
 530:	a6 1b       	sub	r26, r22
 532:	b7 0b       	sbc	r27, r23

00000534 <__udivmodhi4_ep>:
 534:	88 1f       	adc	r24, r24
 536:	99 1f       	adc	r25, r25
 538:	5a 95       	dec	r21
 53a:	a9 f7       	brne	.-22     	; 0x526 <__udivmodhi4_loop>
 53c:	80 95       	com	r24
 53e:	90 95       	com	r25
 540:	bc 01       	movw	r22, r24
 542:	cd 01       	movw	r24, r26
 544:	08 95       	ret

00000546 <__udivmodsi4>:
 546:	a1 e2       	ldi	r26, 0x21	; 33
 548:	1a 2e       	mov	r1, r26
 54a:	aa 1b       	sub	r26, r26
 54c:	bb 1b       	sub	r27, r27
 54e:	fd 01       	movw	r30, r26
 550:	0d c0       	rjmp	.+26     	; 0x56c <__udivmodsi4_ep>

00000552 <__udivmodsi4_loop>:
 552:	aa 1f       	adc	r26, r26
 554:	bb 1f       	adc	r27, r27
 556:	ee 1f       	adc	r30, r30
 558:	ff 1f       	adc	r31, r31
 55a:	a2 17       	cp	r26, r18
 55c:	b3 07       	cpc	r27, r19
 55e:	e4 07       	cpc	r30, r20
 560:	f5 07       	cpc	r31, r21
 562:	20 f0       	brcs	.+8      	; 0x56c <__udivmodsi4_ep>
 564:	a2 1b       	sub	r26, r18
 566:	b3 0b       	sbc	r27, r19
 568:	e4 0b       	sbc	r30, r20
 56a:	f5 0b       	sbc	r31, r21

0000056c <__udivmodsi4_ep>:
 56c:	66 1f       	adc	r22, r22
 56e:	77 1f       	adc	r23, r23
 570:	88 1f       	adc	r24, r24
 572:	99 1f       	adc	r25, r25
 574:	1a 94       	dec	r1
 576:	69 f7       	brne	.-38     	; 0x552 <__udivmodsi4_loop>
 578:	60 95       	com	r22
 57a:	70 95       	com	r23
 57c:	80 95       	com	r24
 57e:	90 95       	com	r25
 580:	9b 01       	movw	r18, r22
 582:	ac 01       	movw	r20, r24
 584:	bd 01       	movw	r22, r26
 586:	cf 01       	movw	r24, r30
 588:	08 95       	ret

0000058a <__divmodsi4>:
 58a:	05 2e       	mov	r0, r21
 58c:	97 fb       	bst	r25, 7
 58e:	16 f4       	brtc	.+4      	; 0x594 <__divmodsi4+0xa>
 590:	00 94       	com	r0
 592:	07 d0       	rcall	.+14     	; 0x5a2 <__divmodsi4_neg1>
 594:	57 fd       	sbrc	r21, 7
 596:	0d d0       	rcall	.+26     	; 0x5b2 <__divmodsi4_neg2>
 598:	0e 94 a3 02 	call	0x546	; 0x546 <__udivmodsi4>
 59c:	07 fc       	sbrc	r0, 7
 59e:	09 d0       	rcall	.+18     	; 0x5b2 <__divmodsi4_neg2>
 5a0:	7e f4       	brtc	.+30     	; 0x5c0 <__divmodsi4_exit>

000005a2 <__divmodsi4_neg1>:
 5a2:	90 95       	com	r25
 5a4:	80 95       	com	r24
 5a6:	70 95       	com	r23
 5a8:	61 95       	neg	r22
 5aa:	7f 4f       	sbci	r23, 0xFF	; 255
 5ac:	8f 4f       	sbci	r24, 0xFF	; 255
 5ae:	9f 4f       	sbci	r25, 0xFF	; 255
 5b0:	08 95       	ret

000005b2 <__divmodsi4_neg2>:
 5b2:	50 95       	com	r21
 5b4:	40 95       	com	r20
 5b6:	30 95       	com	r19
 5b8:	21 95       	neg	r18
 5ba:	3f 4f       	sbci	r19, 0xFF	; 255
 5bc:	4f 4f       	sbci	r20, 0xFF	; 255
 5be:	5f 4f       	sbci	r21, 0xFF	; 255

000005c0 <__divmodsi4_exit>:
 5c0:	08 95       	ret

000005c2 <_exit>:
 5c2:	f8 94       	cli

000005c4 <__stop_program>:
 5c4:	ff cf       	rjmp	.-2      	; 0x5c4 <__stop_program>
